
fir1:     file format elf64-littleriscv


Disassembly of section .text.init:

0000000080000000 <_start>:
#endif

  .section ".text.init"
  .globl _start
_start:
  li  x1, 0
    80000000:	4081                	li	ra,0
  li  x2, 0
    80000002:	4101                	li	sp,0
  li  x3, 0
    80000004:	4181                	li	gp,0
  li  x4, 0
    80000006:	4201                	li	tp,0
  li  x5, 0
    80000008:	4281                	li	t0,0
  li  x6, 0
    8000000a:	4301                	li	t1,0
  li  x7, 0
    8000000c:	4381                	li	t2,0
  li  x8, 0
    8000000e:	4401                	li	s0,0
  li  x9, 0
    80000010:	4481                	li	s1,0
  li  x10,0
    80000012:	4501                	li	a0,0
  li  x11,0
    80000014:	4581                	li	a1,0
  li  x12,0
    80000016:	4601                	li	a2,0
  li  x13,0
    80000018:	4681                	li	a3,0
  li  x14,0
    8000001a:	4701                	li	a4,0
  li  x15,0
    8000001c:	4781                	li	a5,0
  li  x16,0
    8000001e:	4801                	li	a6,0
  li  x17,0
    80000020:	4881                	li	a7,0
  li  x18,0
    80000022:	4901                	li	s2,0
  li  x19,0
    80000024:	4981                	li	s3,0
  li  x20,0
    80000026:	4a01                	li	s4,0
  li  x21,0
    80000028:	4a81                	li	s5,0
  li  x22,0
    8000002a:	4b01                	li	s6,0
  li  x23,0
    8000002c:	4b81                	li	s7,0
  li  x24,0
    8000002e:	4c01                	li	s8,0
  li  x25,0
    80000030:	4c81                	li	s9,0
  li  x26,0
    80000032:	4d01                	li	s10,0
  li  x27,0
    80000034:	4d81                	li	s11,0
  li  x28,0
    80000036:	4e01                	li	t3,0
  li  x29,0
    80000038:	4e81                	li	t4,0
  li  x30,0
    8000003a:	4f01                	li	t5,0
  li  x31,0
    8000003c:	4f81                	li	t6,0

  # enable FPU and accelerator if present
  li t0, MSTATUS_FS | MSTATUS_XS
    8000003e:	62f9                	lui	t0,0x1e
  csrs mstatus, t0
    80000040:	3002a073          	csrs	mstatus,t0

  # make sure XLEN agrees with compilation choice
  li t0, 1
    80000044:	4285                	li	t0,1
  slli t0, t0, 31
    80000046:	02fe                	slli	t0,t0,0x1f
#if __riscv_xlen == 64
  bgez t0, 1f
    80000048:	0002d863          	bgez	t0,80000058 <_start+0x58>
#else
  bltz t0, 1f
#endif
2:
  li a0, 1
    8000004c:	4505                	li	a0,1
  sw a0, tohost, t0
    8000004e:	00001297          	auipc	t0,0x1
    80000052:	faa2a923          	sw	a0,-78(t0) # 80001000 <tohost>
  j 2b
    80000056:	bfdd                	j	8000004c <_start+0x4c>
1:

#ifdef __riscv_flen
  # initialize FPU if we have one
  la t0, 1f
    80000058:	00000297          	auipc	t0,0x0
    8000005c:	09028293          	addi	t0,t0,144 # 800000e8 <_start+0xe8>
  csrw mtvec, t0
    80000060:	30529073          	csrw	mtvec,t0

  fssr    x0
    80000064:	00301073          	fscsr	zero
  fmv.s.x f0, x0
    80000068:	f0000053          	fmv.w.x	ft0,zero
  fmv.s.x f1, x0
    8000006c:	f00000d3          	fmv.w.x	ft1,zero
  fmv.s.x f2, x0
    80000070:	f0000153          	fmv.w.x	ft2,zero
  fmv.s.x f3, x0
    80000074:	f00001d3          	fmv.w.x	ft3,zero
  fmv.s.x f4, x0
    80000078:	f0000253          	fmv.w.x	ft4,zero
  fmv.s.x f5, x0
    8000007c:	f00002d3          	fmv.w.x	ft5,zero
  fmv.s.x f6, x0
    80000080:	f0000353          	fmv.w.x	ft6,zero
  fmv.s.x f7, x0
    80000084:	f00003d3          	fmv.w.x	ft7,zero
  fmv.s.x f8, x0
    80000088:	f0000453          	fmv.w.x	fs0,zero
  fmv.s.x f9, x0
    8000008c:	f00004d3          	fmv.w.x	fs1,zero
  fmv.s.x f10,x0
    80000090:	f0000553          	fmv.w.x	fa0,zero
  fmv.s.x f11,x0
    80000094:	f00005d3          	fmv.w.x	fa1,zero
  fmv.s.x f12,x0
    80000098:	f0000653          	fmv.w.x	fa2,zero
  fmv.s.x f13,x0
    8000009c:	f00006d3          	fmv.w.x	fa3,zero
  fmv.s.x f14,x0
    800000a0:	f0000753          	fmv.w.x	fa4,zero
  fmv.s.x f15,x0
    800000a4:	f00007d3          	fmv.w.x	fa5,zero
  fmv.s.x f16,x0
    800000a8:	f0000853          	fmv.w.x	fa6,zero
  fmv.s.x f17,x0
    800000ac:	f00008d3          	fmv.w.x	fa7,zero
  fmv.s.x f18,x0
    800000b0:	f0000953          	fmv.w.x	fs2,zero
  fmv.s.x f19,x0
    800000b4:	f00009d3          	fmv.w.x	fs3,zero
  fmv.s.x f20,x0
    800000b8:	f0000a53          	fmv.w.x	fs4,zero
  fmv.s.x f21,x0
    800000bc:	f0000ad3          	fmv.w.x	fs5,zero
  fmv.s.x f22,x0
    800000c0:	f0000b53          	fmv.w.x	fs6,zero
  fmv.s.x f23,x0
    800000c4:	f0000bd3          	fmv.w.x	fs7,zero
  fmv.s.x f24,x0
    800000c8:	f0000c53          	fmv.w.x	fs8,zero
  fmv.s.x f25,x0
    800000cc:	f0000cd3          	fmv.w.x	fs9,zero
  fmv.s.x f26,x0
    800000d0:	f0000d53          	fmv.w.x	fs10,zero
  fmv.s.x f27,x0
    800000d4:	f0000dd3          	fmv.w.x	fs11,zero
  fmv.s.x f28,x0
    800000d8:	f0000e53          	fmv.w.x	ft8,zero
  fmv.s.x f29,x0
    800000dc:	f0000ed3          	fmv.w.x	ft9,zero
  fmv.s.x f30,x0
    800000e0:	f0000f53          	fmv.w.x	ft10,zero
  fmv.s.x f31,x0
    800000e4:	f0000fd3          	fmv.w.x	ft11,zero
1:
#endif

  # initialize trap vector
  la t0, trap_entry
    800000e8:	00000297          	auipc	t0,0x0
    800000ec:	03828293          	addi	t0,t0,56 # 80000120 <trap_entry>
  csrw mtvec, t0
    800000f0:	30529073          	csrw	mtvec,t0

  # initialize global pointer
.option push
.option norelax
  la gp, __global_pointer$
    800000f4:	00001197          	auipc	gp,0x1
    800000f8:	75418193          	addi	gp,gp,1876 # 80001848 <__global_pointer$>
.option pop

  la  tp, _end + 63
    800000fc:	85f18213          	addi	tp,gp,-1953 # 800010a7 <_end+0x3f>
  and tp, tp, -64
    80000100:	fc027213          	andi	tp,tp,-64

  # get core id
  csrr a0, mhartid
    80000104:	f1402573          	csrr	a0,mhartid
  # for now, assume only 1 core
  li a1, 1
    80000108:	4585                	li	a1,1
1:bgeu a0, a1, 1b
    8000010a:	00b57063          	bgeu	a0,a1,8000010a <_start+0x10a>

  # give each core 128KB of stack + TLS
#define STKSHIFT 17
  add sp, a0, 1
    8000010e:	00150113          	addi	sp,a0,1
  sll sp, sp, STKSHIFT
    80000112:	0146                	slli	sp,sp,0x11
  add sp, sp, tp
    80000114:	9112                	add	sp,sp,tp
  sll a2, a0, STKSHIFT
    80000116:	01151613          	slli	a2,a0,0x11
  add tp, tp, a2
    8000011a:	9232                	add	tp,tp,a2

  j _init
    8000011c:	6580006f          	j	80000774 <_init>

0000000080000120 <trap_entry>:

  .align 2
trap_entry:
  addi sp, sp, -272
    80000120:	716d                	addi	sp,sp,-272

  SREG x1, 1*REGBYTES(sp)
    80000122:	e406                	sd	ra,8(sp)
  SREG x2, 2*REGBYTES(sp)
    80000124:	e80a                	sd	sp,16(sp)
  SREG x3, 3*REGBYTES(sp)
    80000126:	ec0e                	sd	gp,24(sp)
  SREG x4, 4*REGBYTES(sp)
    80000128:	f012                	sd	tp,32(sp)
  SREG x5, 5*REGBYTES(sp)
    8000012a:	f416                	sd	t0,40(sp)
  SREG x6, 6*REGBYTES(sp)
    8000012c:	f81a                	sd	t1,48(sp)
  SREG x7, 7*REGBYTES(sp)
    8000012e:	fc1e                	sd	t2,56(sp)
  SREG x8, 8*REGBYTES(sp)
    80000130:	e0a2                	sd	s0,64(sp)
  SREG x9, 9*REGBYTES(sp)
    80000132:	e4a6                	sd	s1,72(sp)
  SREG x10, 10*REGBYTES(sp)
    80000134:	e8aa                	sd	a0,80(sp)
  SREG x11, 11*REGBYTES(sp)
    80000136:	ecae                	sd	a1,88(sp)
  SREG x12, 12*REGBYTES(sp)
    80000138:	f0b2                	sd	a2,96(sp)
  SREG x13, 13*REGBYTES(sp)
    8000013a:	f4b6                	sd	a3,104(sp)
  SREG x14, 14*REGBYTES(sp)
    8000013c:	f8ba                	sd	a4,112(sp)
  SREG x15, 15*REGBYTES(sp)
    8000013e:	fcbe                	sd	a5,120(sp)
  SREG x16, 16*REGBYTES(sp)
    80000140:	e142                	sd	a6,128(sp)
  SREG x17, 17*REGBYTES(sp)
    80000142:	e546                	sd	a7,136(sp)
  SREG x18, 18*REGBYTES(sp)
    80000144:	e94a                	sd	s2,144(sp)
  SREG x19, 19*REGBYTES(sp)
    80000146:	ed4e                	sd	s3,152(sp)
  SREG x20, 20*REGBYTES(sp)
    80000148:	f152                	sd	s4,160(sp)
  SREG x21, 21*REGBYTES(sp)
    8000014a:	f556                	sd	s5,168(sp)
  SREG x22, 22*REGBYTES(sp)
    8000014c:	f95a                	sd	s6,176(sp)
  SREG x23, 23*REGBYTES(sp)
    8000014e:	fd5e                	sd	s7,184(sp)
  SREG x24, 24*REGBYTES(sp)
    80000150:	e1e2                	sd	s8,192(sp)
  SREG x25, 25*REGBYTES(sp)
    80000152:	e5e6                	sd	s9,200(sp)
  SREG x26, 26*REGBYTES(sp)
    80000154:	e9ea                	sd	s10,208(sp)
  SREG x27, 27*REGBYTES(sp)
    80000156:	edee                	sd	s11,216(sp)
  SREG x28, 28*REGBYTES(sp)
    80000158:	f1f2                	sd	t3,224(sp)
  SREG x29, 29*REGBYTES(sp)
    8000015a:	f5f6                	sd	t4,232(sp)
  SREG x30, 30*REGBYTES(sp)
    8000015c:	f9fa                	sd	t5,240(sp)
  SREG x31, 31*REGBYTES(sp)
    8000015e:	fdfe                	sd	t6,248(sp)

  csrr a0, mcause
    80000160:	34202573          	csrr	a0,mcause
  csrr a1, mepc
    80000164:	341025f3          	csrr	a1,mepc
  mv a2, sp
    80000168:	860a                	mv	a2,sp
  jal handle_trap
    8000016a:	170000ef          	jal	800002da <handle_trap>
  csrw mepc, a0
    8000016e:	34151073          	csrw	mepc,a0

  # Remain in M-mode after eret
  li t0, MSTATUS_MPP
    80000172:	6289                	lui	t0,0x2
    80000174:	8002829b          	addiw	t0,t0,-2048 # 1800 <_start-0x7fffe800>
  csrs mstatus, t0
    80000178:	3002a073          	csrs	mstatus,t0

  LREG x1, 1*REGBYTES(sp)
    8000017c:	60a2                	ld	ra,8(sp)
  LREG x2, 2*REGBYTES(sp)
    8000017e:	6142                	ld	sp,16(sp)
  LREG x3, 3*REGBYTES(sp)
    80000180:	61e2                	ld	gp,24(sp)
  LREG x4, 4*REGBYTES(sp)
    80000182:	7202                	ld	tp,32(sp)
  LREG x5, 5*REGBYTES(sp)
    80000184:	72a2                	ld	t0,40(sp)
  LREG x6, 6*REGBYTES(sp)
    80000186:	7342                	ld	t1,48(sp)
  LREG x7, 7*REGBYTES(sp)
    80000188:	73e2                	ld	t2,56(sp)
  LREG x8, 8*REGBYTES(sp)
    8000018a:	6406                	ld	s0,64(sp)
  LREG x9, 9*REGBYTES(sp)
    8000018c:	64a6                	ld	s1,72(sp)
  LREG x10, 10*REGBYTES(sp)
    8000018e:	6546                	ld	a0,80(sp)
  LREG x11, 11*REGBYTES(sp)
    80000190:	65e6                	ld	a1,88(sp)
  LREG x12, 12*REGBYTES(sp)
    80000192:	7606                	ld	a2,96(sp)
  LREG x13, 13*REGBYTES(sp)
    80000194:	76a6                	ld	a3,104(sp)
  LREG x14, 14*REGBYTES(sp)
    80000196:	7746                	ld	a4,112(sp)
  LREG x15, 15*REGBYTES(sp)
    80000198:	77e6                	ld	a5,120(sp)
  LREG x16, 16*REGBYTES(sp)
    8000019a:	680a                	ld	a6,128(sp)
  LREG x17, 17*REGBYTES(sp)
    8000019c:	68aa                	ld	a7,136(sp)
  LREG x18, 18*REGBYTES(sp)
    8000019e:	694a                	ld	s2,144(sp)
  LREG x19, 19*REGBYTES(sp)
    800001a0:	69ea                	ld	s3,152(sp)
  LREG x20, 20*REGBYTES(sp)
    800001a2:	7a0a                	ld	s4,160(sp)
  LREG x21, 21*REGBYTES(sp)
    800001a4:	7aaa                	ld	s5,168(sp)
  LREG x22, 22*REGBYTES(sp)
    800001a6:	7b4a                	ld	s6,176(sp)
  LREG x23, 23*REGBYTES(sp)
    800001a8:	7bea                	ld	s7,184(sp)
  LREG x24, 24*REGBYTES(sp)
    800001aa:	6c0e                	ld	s8,192(sp)
  LREG x25, 25*REGBYTES(sp)
    800001ac:	6cae                	ld	s9,200(sp)
  LREG x26, 26*REGBYTES(sp)
    800001ae:	6d4e                	ld	s10,208(sp)
  LREG x27, 27*REGBYTES(sp)
    800001b0:	6dee                	ld	s11,216(sp)
  LREG x28, 28*REGBYTES(sp)
    800001b2:	7e0e                	ld	t3,224(sp)
  LREG x29, 29*REGBYTES(sp)
    800001b4:	7eae                	ld	t4,232(sp)
  LREG x30, 30*REGBYTES(sp)
    800001b6:	7f4e                	ld	t5,240(sp)
  LREG x31, 31*REGBYTES(sp)
    800001b8:	7fee                	ld	t6,248(sp)

  addi sp, sp, 272
    800001ba:	6151                	addi	sp,sp,272
  mret
    800001bc:	30200073          	mret
	...

Disassembly of section .text:

00000000800001c2 <fir>:
// a7: address limit for c[m]

.global fir

fir:
    sub t0, a3, a4       # Compute (n - m)
    800001c2:	40e682b3          	sub	t0,a3,a4
    addi t0, t0, 1       # Add 1 to get (n - m + 1)
    800001c6:	0285                	addi	t0,t0,1
    slli t0, t0, 2       # Convert to byte offset (4 bytes per word)
    800001c8:	028a                	slli	t0,t0,0x2
    add t0, a2, t0       # Compute end address of y (y[n-m])
    800001ca:	92b2                	add	t0,t0,a2

00000000800001cc <forj>:

forj:
    bge a2, t0, donej    # If y[j] reaches end, exit loop
    800001cc:	02565963          	bge	a2,t0,800001fe <donej>

    li t3, 0             # sum = 0
    800001d0:	4e01                	li	t3,0

    mv t4, a1            # Set pointer to c[0] (coefficient array)
    800001d2:	8eae                	mv	t4,a1
    add t5, a2, a4       # Compute address of x[j + m - 1]
    800001d4:	00e60f33          	add	t5,a2,a4
    slli t5, t5, 2       # Convert to byte offset
    800001d8:	0f0a                	slli	t5,t5,0x2

    add a7, a1, a4   # Compute end address of c[m] (byte offset)
    800001da:	00e588b3          	add	a7,a1,a4

00000000800001de <fori>:

fori:
    bge t4, a7, donei    # If c[i] reaches end, exit loop
    800001de:	011edc63          	bge	t4,a7,800001f6 <donei>

    lw t6, 0(t4)         # Load c[i]
    800001e2:	000eaf83          	lw	t6,0(t4)
    lw a5, -4(t5)        # Load x[j-1+(m-1)]
    800001e6:	ffcf2783          	lw	a5,-4(t5)

    mul a6, t6, a5       # Multiply c[i] * x[j-1+(m-1)]
    800001ea:	02ff8833          	mul	a6,t6,a5
    add t3, t3, a6       # sum += result
    800001ee:	9e42                	add	t3,t3,a6

    addi t4, t4, 4       # Move to next coefficient c[i+1]
    800001f0:	0e91                	addi	t4,t4,4
    addi t5, t5, -4      # Move to previous x value
    800001f2:	1f71                	addi	t5,t5,-4

    j fori               # Loop over i
    800001f4:	b7ed                	j	800001de <fori>

00000000800001f6 <donei>:

donei:
    sw t3, 0(a2)         # Store y[j] = sum
    800001f6:	01c62023          	sw	t3,0(a2)
    addi a2, a2, 4       # Move to next y[j+1]
    800001fa:	0611                	addi	a2,a2,4

    j forj               # Loop over j
    800001fc:	bfc1                	j	800001cc <forj>

00000000800001fe <donej>:

donej:
    ret                  # Return from function
    800001fe:	8082                	ret

0000000080000200 <sprintf_putch.0>:
  va_start(ap, fmt);

  void sprintf_putch(int ch, void** data)
  {
    char** pstr = (char**)data;
    **pstr = ch;
    80000200:	619c                	ld	a5,0(a1)
    80000202:	00a78023          	sb	a0,0(a5)
    (*pstr)++;
    80000206:	619c                	ld	a5,0(a1)
    80000208:	0785                	addi	a5,a5,1
    8000020a:	e19c                	sd	a5,0(a1)
  }
    8000020c:	8082                	ret

000000008000020e <uartInit>:
	*UART_LCR = 0b0000011; // 8-bit characters, 1 stop bit, no parity
    8000020e:	100007b7          	lui	a5,0x10000
    80000212:	470d                	li	a4,3
    80000214:	00e781a3          	sb	a4,3(a5) # 10000003 <_start-0x6ffffffd>
}
    80000218:	8082                	ret

000000008000021a <uartSend>:
	while (!(*UART_LSR & (1<<5))); // wait for THRE (trans hold reg empty)
    8000021a:	10000737          	lui	a4,0x10000
    8000021e:	0715                	addi	a4,a4,5 # 10000005 <_start-0x6ffffffb>
    80000220:	00074783          	lbu	a5,0(a4)
    80000224:	0207f793          	andi	a5,a5,32
    80000228:	dfe5                	beqz	a5,80000220 <uartSend+0x6>
	*UART_THR = c;
    8000022a:	100007b7          	lui	a5,0x10000
    8000022e:	00a78023          	sb	a0,0(a5) # 10000000 <_start-0x70000000>
}
    80000232:	8082                	ret

0000000080000234 <putchar>:
{
    80000234:	1141                	addi	sp,sp,-16
    80000236:	e406                	sd	ra,8(sp)
  uartSend(ch);
    80000238:	0ff57513          	zext.b	a0,a0
    8000023c:	fdfff0ef          	jal	8000021a <uartSend>
}
    80000240:	4501                	li	a0,0
    80000242:	60a2                	ld	ra,8(sp)
    80000244:	0141                	addi	sp,sp,16
    80000246:	8082                	ret

0000000080000248 <uartReceive>:
	while (!(*UART_LSR & (1<<0))); // wait for DR (Data Ready)
    80000248:	10000737          	lui	a4,0x10000
    8000024c:	0715                	addi	a4,a4,5 # 10000005 <_start-0x6ffffffb>
    8000024e:	00074783          	lbu	a5,0(a4)
    80000252:	8b85                	andi	a5,a5,1
    80000254:	dfed                	beqz	a5,8000024e <uartReceive+0x6>
	return *UART_RBR;
    80000256:	100007b7          	lui	a5,0x10000
    8000025a:	0007c503          	lbu	a0,0(a5) # 10000000 <_start-0x70000000>
}
    8000025e:	8082                	ret

0000000080000260 <uartPutStr>:
char uartPutStr(const char *str) {
    80000260:	1141                	addi	sp,sp,-16
    80000262:	e406                	sd	ra,8(sp)
    80000264:	e022                	sd	s0,0(sp)
    80000266:	842a                	mv	s0,a0
    while (*str) {
    80000268:	00054503          	lbu	a0,0(a0)
    8000026c:	c519                	beqz	a0,8000027a <uartPutStr+0x1a>
        uartSend(*str++);
    8000026e:	0405                	addi	s0,s0,1
    80000270:	fabff0ef          	jal	8000021a <uartSend>
    while (*str) {
    80000274:	00044503          	lbu	a0,0(s0)
    80000278:	f97d                	bnez	a0,8000026e <uartPutStr+0xe>
}
    8000027a:	60a2                	ld	ra,8(sp)
    8000027c:	6402                	ld	s0,0(sp)
    8000027e:	0141                	addi	sp,sp,16
    80000280:	8082                	ret

0000000080000282 <setStats>:
  READ_CTR(mcycle);
    80000282:	b00027f3          	csrr	a5,mcycle
    80000286:	ed01                	bnez	a0,8000029e <setStats+0x1c>
    80000288:	00001717          	auipc	a4,0x1
    8000028c:	dc070713          	addi	a4,a4,-576 # 80001048 <counters>
    80000290:	6314                	ld	a3,0(a4)
    80000292:	8f95                	sub	a5,a5,a3
    80000294:	00000697          	auipc	a3,0x0
    80000298:	62c68693          	addi	a3,a3,1580 # 800008c0 <atol+0x66>
    8000029c:	eb14                	sd	a3,16(a4)
    8000029e:	00001717          	auipc	a4,0x1
    800002a2:	daf73523          	sd	a5,-598(a4) # 80001048 <counters>
  READ_CTR(minstret);
    800002a6:	b02027f3          	csrr	a5,minstret
    800002aa:	ed01                	bnez	a0,800002c2 <setStats+0x40>
    800002ac:	00001717          	auipc	a4,0x1
    800002b0:	d9c70713          	addi	a4,a4,-612 # 80001048 <counters>
    800002b4:	6714                	ld	a3,8(a4)
    800002b6:	8f95                	sub	a5,a5,a3
    800002b8:	00000697          	auipc	a3,0x0
    800002bc:	61868693          	addi	a3,a3,1560 # 800008d0 <atol+0x76>
    800002c0:	ef14                	sd	a3,24(a4)
    800002c2:	80f1b423          	sd	a5,-2040(gp) # 80001050 <counters+0x8>
}
    800002c6:	8082                	ret

00000000800002c8 <tohost_exit>:
  tohost = (code << 1) | 1;
    800002c8:	00151793          	slli	a5,a0,0x1
    800002cc:	0017e793          	ori	a5,a5,1
    800002d0:	00001717          	auipc	a4,0x1
    800002d4:	d2f73823          	sd	a5,-720(a4) # 80001000 <tohost>
  while (1);
    800002d8:	a001                	j	800002d8 <tohost_exit+0x10>

00000000800002da <handle_trap>:
{
    800002da:	1141                	addi	sp,sp,-16
    800002dc:	e406                	sd	ra,8(sp)
  tohost_exit(1337);
    800002de:	53900513          	li	a0,1337
    800002e2:	fe7ff0ef          	jal	800002c8 <tohost_exit>

00000000800002e6 <exit>:
{
    800002e6:	1141                	addi	sp,sp,-16
    800002e8:	e406                	sd	ra,8(sp)
  tohost_exit(code);
    800002ea:	fdfff0ef          	jal	800002c8 <tohost_exit>

00000000800002ee <abort>:
{
    800002ee:	1141                	addi	sp,sp,-16
    800002f0:	e406                	sd	ra,8(sp)
  tohost_exit(code);
    800002f2:	08600513          	li	a0,134
    800002f6:	fd3ff0ef          	jal	800002c8 <tohost_exit>

00000000800002fa <printstr>:
{
    800002fa:	1141                	addi	sp,sp,-16
    800002fc:	e406                	sd	ra,8(sp)
  uartPutStr(s);
    800002fe:	f63ff0ef          	jal	80000260 <uartPutStr>
}
    80000302:	60a2                	ld	ra,8(sp)
    80000304:	0141                	addi	sp,sp,16
    80000306:	8082                	ret

0000000080000308 <puts>:
{
    80000308:	1141                	addi	sp,sp,-16
    8000030a:	e406                	sd	ra,8(sp)
  uartPutStr(s);
    8000030c:	f55ff0ef          	jal	80000260 <uartPutStr>
}
    80000310:	4501                	li	a0,0
    80000312:	60a2                	ld	ra,8(sp)
    80000314:	0141                	addi	sp,sp,16
    80000316:	8082                	ret

0000000080000318 <thread_entry>:
  while (cid != 0);
    80000318:	e111                	bnez	a0,8000031c <thread_entry+0x4>
}
    8000031a:	8082                	ret
  while (cid != 0);
    8000031c:	a001                	j	8000031c <thread_entry+0x4>

000000008000031e <main>:
{
    8000031e:	1141                	addi	sp,sp,-16
    80000320:	e406                	sd	ra,8(sp)
  uartPutStr(s);
    80000322:	00000517          	auipc	a0,0x0
    80000326:	5be50513          	addi	a0,a0,1470 # 800008e0 <atol+0x86>
    8000032a:	f37ff0ef          	jal	80000260 <uartPutStr>
}
    8000032e:	557d                	li	a0,-1
    80000330:	60a2                	ld	ra,8(sp)
    80000332:	0141                	addi	sp,sp,16
    80000334:	8082                	ret

0000000080000336 <printhex>:
{
    80000336:	7179                	addi	sp,sp,-48
    80000338:	f406                	sd	ra,40(sp)
  for (i = 0; i < 16; i++)
    8000033a:	01710693          	addi	a3,sp,23
    8000033e:	00810893          	addi	a7,sp,8
    str[15-i] = (x & 0xF) + ((x & 0xF) < 10 ? '0' : 'a'-10);
    80000342:	4825                	li	a6,9
    80000344:	05700593          	li	a1,87
    80000348:	03000313          	li	t1,48
    8000034c:	a811                	j	80000360 <printhex+0x2a>
    8000034e:	9fb1                	addw	a5,a5,a2
    80000350:	00f68023          	sb	a5,0(a3)
    x >>= 4;
    80000354:	8111                	srli	a0,a0,0x4
  for (i = 0; i < 16; i++)
    80000356:	fff68793          	addi	a5,a3,-1
    8000035a:	01168a63          	beq	a3,a7,8000036e <printhex+0x38>
    8000035e:	86be                	mv	a3,a5
    str[15-i] = (x & 0xF) + ((x & 0xF) < 10 ? '0' : 'a'-10);
    80000360:	00f57793          	andi	a5,a0,15
    80000364:	862e                	mv	a2,a1
    80000366:	fef864e3          	bltu	a6,a5,8000034e <printhex+0x18>
    8000036a:	861a                	mv	a2,t1
    8000036c:	b7cd                	j	8000034e <printhex+0x18>
  str[16] = 0;
    8000036e:	00010c23          	sb	zero,24(sp)
  uartPutStr(s);
    80000372:	0028                	addi	a0,sp,8
    80000374:	eedff0ef          	jal	80000260 <uartPutStr>
}
    80000378:	70a2                	ld	ra,40(sp)
    8000037a:	6145                	addi	sp,sp,48
    8000037c:	8082                	ret

000000008000037e <memcpy>:
  return str - str0;
}

void* memcpy(void* dest, const void* src, size_t len)
{
  if ((((uintptr_t)dest | (uintptr_t)src | len) & (sizeof(uintptr_t)-1)) == 0) {
    8000037e:	00c5e7b3          	or	a5,a1,a2
    80000382:	8fc9                	or	a5,a5,a0
    80000384:	8b9d                	andi	a5,a5,7
    80000386:	c38d                	beqz	a5,800003a8 <memcpy+0x2a>
    while (d < (uintptr_t*)(dest + len))
      *d++ = *s++;
  } else {
    const char* s = src;
    char *d = dest;
    while (d < (char*)(dest + len))
    80000388:	00c50733          	add	a4,a0,a2
    8000038c:	962e                	add	a2,a2,a1
    char *d = dest;
    8000038e:	87aa                	mv	a5,a0
    while (d < (char*)(dest + len))
    80000390:	00e57b63          	bgeu	a0,a4,800003a6 <memcpy+0x28>
      *d++ = *s++;
    80000394:	0585                	addi	a1,a1,1
    80000396:	0785                	addi	a5,a5,1
    80000398:	fff5c703          	lbu	a4,-1(a1)
    8000039c:	fee78fa3          	sb	a4,-1(a5)
    while (d < (char*)(dest + len))
    800003a0:	feb61ae3          	bne	a2,a1,80000394 <memcpy+0x16>
  }
  return dest;
}
    800003a4:	8082                	ret
    800003a6:	8082                	ret
    while (d < (uintptr_t*)(dest + len))
    800003a8:	962a                	add	a2,a2,a0
    800003aa:	fec57de3          	bgeu	a0,a2,800003a4 <memcpy+0x26>
    uintptr_t *d = dest;
    800003ae:	87aa                	mv	a5,a0
      *d++ = *s++;
    800003b0:	05a1                	addi	a1,a1,8
    800003b2:	07a1                	addi	a5,a5,8
    800003b4:	ff85b703          	ld	a4,-8(a1)
    800003b8:	fee7bc23          	sd	a4,-8(a5)
    while (d < (uintptr_t*)(dest + len))
    800003bc:	fec7eae3          	bltu	a5,a2,800003b0 <memcpy+0x32>
    800003c0:	8082                	ret

00000000800003c2 <memset>:

void* memset(void* dest, int byte, size_t len)
{
  if ((((uintptr_t)dest | len) & (sizeof(uintptr_t)-1)) == 0) {
    800003c2:	00c567b3          	or	a5,a0,a2
    800003c6:	8b9d                	andi	a5,a5,7
    800003c8:	cf81                	beqz	a5,800003e0 <memset+0x1e>
    uintptr_t *d = dest;
    while (d < (uintptr_t*)(dest + len))
      *d++ = word;
  } else {
    char *d = dest;
    while (d < (char*)(dest + len))
    800003ca:	962a                	add	a2,a2,a0
    char *d = dest;
    800003cc:	87aa                	mv	a5,a0
    while (d < (char*)(dest + len))
    800003ce:	00c57863          	bgeu	a0,a2,800003de <memset+0x1c>
      *d++ = byte;
    800003d2:	0785                	addi	a5,a5,1
    800003d4:	feb78fa3          	sb	a1,-1(a5)
    while (d < (char*)(dest + len))
    800003d8:	fec79de3          	bne	a5,a2,800003d2 <memset+0x10>
  }
  return dest;
}
    800003dc:	8082                	ret
    800003de:	8082                	ret
    uintptr_t word = byte & 0xFF;
    800003e0:	0ff5f593          	zext.b	a1,a1
    800003e4:	010107b7          	lui	a5,0x1010
    800003e8:	10178793          	addi	a5,a5,257 # 1010101 <_start-0x7efefeff>
    800003ec:	02079713          	slli	a4,a5,0x20
    800003f0:	97ba                	add	a5,a5,a4
    800003f2:	02f585b3          	mul	a1,a1,a5
    while (d < (uintptr_t*)(dest + len))
    800003f6:	962a                	add	a2,a2,a0
    800003f8:	fec572e3          	bgeu	a0,a2,800003dc <memset+0x1a>
    uintptr_t *d = dest;
    800003fc:	87aa                	mv	a5,a0
      *d++ = word;
    800003fe:	07a1                	addi	a5,a5,8
    80000400:	feb7bc23          	sd	a1,-8(a5)
    while (d < (uintptr_t*)(dest + len))
    80000404:	fec7ede3          	bltu	a5,a2,800003fe <memset+0x3c>
    80000408:	8082                	ret

000000008000040a <strlen>:

size_t strlen(const char *s)
{
  const char *p = s;
  while (*p)
    8000040a:	00054783          	lbu	a5,0(a0)
    8000040e:	cb89                	beqz	a5,80000420 <strlen+0x16>
  const char *p = s;
    80000410:	87aa                	mv	a5,a0
    p++;
    80000412:	0785                	addi	a5,a5,1
  while (*p)
    80000414:	0007c703          	lbu	a4,0(a5)
    80000418:	ff6d                	bnez	a4,80000412 <strlen+0x8>
  return p - s;
}
    8000041a:	40a78533          	sub	a0,a5,a0
    8000041e:	8082                	ret
  const char *p = s;
    80000420:	87aa                	mv	a5,a0
    80000422:	bfe5                	j	8000041a <strlen+0x10>

0000000080000424 <strnlen>:

size_t strnlen(const char *s, size_t n)
{
  const char *p = s;
  while (n-- && *p)
    80000424:	cd89                	beqz	a1,8000043e <strnlen+0x1a>
    80000426:	95aa                	add	a1,a1,a0
  const char *p = s;
    80000428:	87aa                	mv	a5,a0
  while (n-- && *p)
    8000042a:	0007c703          	lbu	a4,0(a5)
    8000042e:	c709                	beqz	a4,80000438 <strnlen+0x14>
    p++;
    80000430:	0785                	addi	a5,a5,1
  while (n-- && *p)
    80000432:	feb79ce3          	bne	a5,a1,8000042a <strnlen+0x6>
    80000436:	87ae                	mv	a5,a1
  return p - s;
}
    80000438:	40a78533          	sub	a0,a5,a0
    8000043c:	8082                	ret
  const char *p = s;
    8000043e:	87aa                	mv	a5,a0
    80000440:	bfe5                	j	80000438 <strnlen+0x14>

0000000080000442 <vprintfmt>:
{
    80000442:	7149                	addi	sp,sp,-368
    80000444:	f686                	sd	ra,360(sp)
    80000446:	f2a2                	sd	s0,352(sp)
    80000448:	eea6                	sd	s1,344(sp)
    8000044a:	eaca                	sd	s2,336(sp)
    8000044c:	e6ce                	sd	s3,328(sp)
    8000044e:	e2d2                	sd	s4,320(sp)
    80000450:	fe56                	sd	s5,312(sp)
    80000452:	fa5a                	sd	s6,304(sp)
    80000454:	f65e                	sd	s7,296(sp)
    80000456:	f262                	sd	s8,288(sp)
    80000458:	ea6a                	sd	s10,272(sp)
    8000045a:	e66e                	sd	s11,264(sp)
    8000045c:	892a                	mv	s2,a0
    8000045e:	84ae                	mv	s1,a1
    80000460:	8432                	mv	s0,a2
    80000462:	8c36                	mv	s8,a3
    while ((ch = *(unsigned char *) fmt) != '%') {
    80000464:	02500a13          	li	s4,37
    precision = -1;
    80000468:	5dfd                	li	s11,-1
    switch (ch = *(unsigned char *) fmt++) {
    8000046a:	00000d17          	auipc	s10,0x0
    8000046e:	4a2d0d13          	addi	s10,s10,1186 # 8000090c <atol+0xb2>
    while ((ch = *(unsigned char *) fmt) != '%') {
    80000472:	00044503          	lbu	a0,0(s0)
    80000476:	01450b63          	beq	a0,s4,8000048c <vprintfmt+0x4a>
      if (ch == '\0')
    8000047a:	26050a63          	beqz	a0,800006ee <vprintfmt+0x2ac>
      fmt++;
    8000047e:	0405                	addi	s0,s0,1
      putch(ch, putdat);
    80000480:	85a6                	mv	a1,s1
    80000482:	9902                	jalr	s2
    while ((ch = *(unsigned char *) fmt) != '%') {
    80000484:	00044503          	lbu	a0,0(s0)
    80000488:	ff4519e3          	bne	a0,s4,8000047a <vprintfmt+0x38>
    fmt++;
    8000048c:	00140a93          	addi	s5,s0,1
    80000490:	8756                	mv	a4,s5
    padc = ' ';
    80000492:	02000b93          	li	s7,32
    precision = -1;
    80000496:	89ee                	mv	s3,s11
    width = -1;
    80000498:	8b6e                	mv	s6,s11
    lflag = 0;
    8000049a:	4601                	li	a2,0
    switch (ch = *(unsigned char *) fmt++) {
    8000049c:	05500693          	li	a3,85
    800004a0:	00170413          	addi	s0,a4,1
    800004a4:	00074583          	lbu	a1,0(a4)
    800004a8:	fdd5879b          	addiw	a5,a1,-35
    800004ac:	0ff7f513          	zext.b	a0,a5
    800004b0:	20a6ea63          	bltu	a3,a0,800006c4 <vprintfmt+0x282>
    800004b4:	00251793          	slli	a5,a0,0x2
    800004b8:	97ea                	add	a5,a5,s10
    800004ba:	439c                	lw	a5,0(a5)
    800004bc:	97ea                	add	a5,a5,s10
    800004be:	8782                	jr	a5
      if ((p = va_arg(ap, char *)) == NULL)
    800004c0:	8c56                	mv	s8,s5
    800004c2:	bf45                	j	80000472 <vprintfmt+0x30>
    switch (ch = *(unsigned char *) fmt++) {
    800004c4:	8bae                	mv	s7,a1
    800004c6:	8722                	mv	a4,s0
    800004c8:	bfe1                	j	800004a0 <vprintfmt+0x5e>
    800004ca:	ee66                	sd	s9,280(sp)
      base = 8;
    800004cc:	45a1                	li	a1,8
    800004ce:	aa91                	j	80000622 <vprintfmt+0x1e0>
        precision = precision * 10 + ch - '0';
    800004d0:	fd05899b          	addiw	s3,a1,-48
        ch = *fmt;
    800004d4:	00174783          	lbu	a5,1(a4)
    800004d8:	0007871b          	sext.w	a4,a5
        if (ch < '0' || ch > '9')
    800004dc:	fd07879b          	addiw	a5,a5,-48
    800004e0:	45a5                	li	a1,9
    800004e2:	04f5ea63          	bltu	a1,a5,80000536 <vprintfmt+0xf4>
      for (precision = 0; ; ++fmt) {
    800004e6:	0405                	addi	s0,s0,1
        precision = precision * 10 + ch - '0';
    800004e8:	0029979b          	slliw	a5,s3,0x2
    800004ec:	013787bb          	addw	a5,a5,s3
    800004f0:	0017979b          	slliw	a5,a5,0x1
    800004f4:	9fb9                	addw	a5,a5,a4
    800004f6:	fd07899b          	addiw	s3,a5,-48
        ch = *fmt;
    800004fa:	00044783          	lbu	a5,0(s0)
    800004fe:	0007871b          	sext.w	a4,a5
        if (ch < '0' || ch > '9')
    80000502:	fd07879b          	addiw	a5,a5,-48
    80000506:	fef5f0e3          	bgeu	a1,a5,800004e6 <vprintfmt+0xa4>
    8000050a:	8722                	mv	a4,s0
    8000050c:	a029                	j	80000516 <vprintfmt+0xd4>
      precision = va_arg(ap, int);
    8000050e:	000c2983          	lw	s3,0(s8)
    80000512:	0c21                	addi	s8,s8,8
    switch (ch = *(unsigned char *) fmt++) {
    80000514:	8722                	mv	a4,s0
      if (width < 0)
    80000516:	f80b55e3          	bgez	s6,800004a0 <vprintfmt+0x5e>
        width = precision, precision = -1;
    8000051a:	8b4e                	mv	s6,s3
    8000051c:	59fd                	li	s3,-1
    8000051e:	b749                	j	800004a0 <vprintfmt+0x5e>
      if (width < 0)
    80000520:	87da                	mv	a5,s6
    80000522:	000b4663          	bltz	s6,8000052e <vprintfmt+0xec>
    80000526:	00078b1b          	sext.w	s6,a5
    switch (ch = *(unsigned char *) fmt++) {
    8000052a:	8722                	mv	a4,s0
      goto reswitch;
    8000052c:	bf95                	j	800004a0 <vprintfmt+0x5e>
      if (width < 0)
    8000052e:	4781                	li	a5,0
    80000530:	bfdd                	j	80000526 <vprintfmt+0xe4>
    switch (ch = *(unsigned char *) fmt++) {
    80000532:	8722                	mv	a4,s0
      goto reswitch;
    80000534:	b7b5                	j	800004a0 <vprintfmt+0x5e>
    switch (ch = *(unsigned char *) fmt++) {
    80000536:	8722                	mv	a4,s0
    80000538:	bff9                	j	80000516 <vprintfmt+0xd4>
      lflag++;
    8000053a:	2605                	addiw	a2,a2,1
    switch (ch = *(unsigned char *) fmt++) {
    8000053c:	8722                	mv	a4,s0
      goto reswitch;
    8000053e:	b78d                	j	800004a0 <vprintfmt+0x5e>
      putch(va_arg(ap, int), putdat);
    80000540:	008c0993          	addi	s3,s8,8
    80000544:	85a6                	mv	a1,s1
    80000546:	000c2503          	lw	a0,0(s8)
    8000054a:	9902                	jalr	s2
    8000054c:	8c4e                	mv	s8,s3
      break;
    8000054e:	b715                	j	80000472 <vprintfmt+0x30>
      if ((p = va_arg(ap, char *)) == NULL)
    80000550:	008c0a93          	addi	s5,s8,8
    80000554:	000c3c03          	ld	s8,0(s8)
    80000558:	180c0263          	beqz	s8,800006dc <vprintfmt+0x29a>
      if (width > 0 && padc != '-')
    8000055c:	17605a63          	blez	s6,800006d0 <vprintfmt+0x28e>
    80000560:	02d00793          	li	a5,45
    80000564:	00fb9663          	bne	s7,a5,80000570 <vprintfmt+0x12e>
      for (; (ch = *p) != '\0' && (precision < 0 || --precision >= 0); width--) {
    80000568:	000c4503          	lbu	a0,0(s8)
    8000056c:	ed0d                	bnez	a0,800005a6 <vprintfmt+0x164>
    8000056e:	a099                	j	800005b4 <vprintfmt+0x172>
        for (width -= strnlen(p, precision); width > 0; width--)
    80000570:	85ce                	mv	a1,s3
    80000572:	8562                	mv	a0,s8
    80000574:	eb1ff0ef          	jal	80000424 <strnlen>
    80000578:	40ab0b3b          	subw	s6,s6,a0
    8000057c:	15605a63          	blez	s6,800006d0 <vprintfmt+0x28e>
          putch(padc, putdat);
    80000580:	2b81                	sext.w	s7,s7
    80000582:	85a6                	mv	a1,s1
    80000584:	855e                	mv	a0,s7
    80000586:	9902                	jalr	s2
        for (width -= strnlen(p, precision); width > 0; width--)
    80000588:	3b7d                	addiw	s6,s6,-1
    8000058a:	fe0b1ce3          	bnez	s6,80000582 <vprintfmt+0x140>
      for (; (ch = *p) != '\0' && (precision < 0 || --precision >= 0); width--) {
    8000058e:	000c4503          	lbu	a0,0(s8)
    80000592:	e911                	bnez	a0,800005a6 <vprintfmt+0x164>
    80000594:	8b2a                	mv	s6,a0
    80000596:	a829                	j	800005b0 <vprintfmt+0x16e>
        putch(ch, putdat);
    80000598:	85a6                	mv	a1,s1
    8000059a:	9902                	jalr	s2
        p++;
    8000059c:	0c05                	addi	s8,s8,1
      for (; (ch = *p) != '\0' && (precision < 0 || --precision >= 0); width--) {
    8000059e:	3b7d                	addiw	s6,s6,-1
    800005a0:	000c4503          	lbu	a0,0(s8)
    800005a4:	c511                	beqz	a0,800005b0 <vprintfmt+0x16e>
    800005a6:	fe09c9e3          	bltz	s3,80000598 <vprintfmt+0x156>
    800005aa:	39fd                	addiw	s3,s3,-1
    800005ac:	fe09d6e3          	bgez	s3,80000598 <vprintfmt+0x156>
      for (; width > 0; width--)
    800005b0:	f16058e3          	blez	s6,800004c0 <vprintfmt+0x7e>
        putch(' ', putdat);
    800005b4:	02000993          	li	s3,32
    800005b8:	85a6                	mv	a1,s1
    800005ba:	854e                	mv	a0,s3
    800005bc:	9902                	jalr	s2
      for (; width > 0; width--)
    800005be:	3b7d                	addiw	s6,s6,-1
    800005c0:	fe0b1ce3          	bnez	s6,800005b8 <vprintfmt+0x176>
      if ((p = va_arg(ap, char *)) == NULL)
    800005c4:	8c56                	mv	s8,s5
    800005c6:	b575                	j	80000472 <vprintfmt+0x30>
    800005c8:	ee66                	sd	s9,280(sp)
  if (lflag >= 2)
    800005ca:	4785                	li	a5,1
    800005cc:	00c7c763          	blt	a5,a2,800005da <vprintfmt+0x198>
  else if (lflag)
    800005d0:	ce09                	beqz	a2,800005ea <vprintfmt+0x1a8>
    return va_arg(*ap, long);
    800005d2:	000c3983          	ld	s3,0(s8)
    800005d6:	0c21                	addi	s8,s8,8
    800005d8:	a021                	j	800005e0 <vprintfmt+0x19e>
    return va_arg(*ap, long long);
    800005da:	000c3983          	ld	s3,0(s8)
    800005de:	0c21                	addi	s8,s8,8
      if ((long long) num < 0) {
    800005e0:	0009c963          	bltz	s3,800005f2 <vprintfmt+0x1b0>
      num = getint(&ap, lflag);
    800005e4:	87ce                	mv	a5,s3
      base = 10;
    800005e6:	45a9                	li	a1,10
    800005e8:	a099                	j	8000062e <vprintfmt+0x1ec>
    return va_arg(*ap, int);
    800005ea:	000c2983          	lw	s3,0(s8)
    800005ee:	0c21                	addi	s8,s8,8
    800005f0:	bfc5                	j	800005e0 <vprintfmt+0x19e>
        putch('-', putdat);
    800005f2:	85a6                	mv	a1,s1
    800005f4:	02d00513          	li	a0,45
    800005f8:	9902                	jalr	s2
        num = -(long long) num;
    800005fa:	413007b3          	neg	a5,s3
      base = 10;
    800005fe:	45a9                	li	a1,10
    80000600:	a03d                	j	8000062e <vprintfmt+0x1ec>
    80000602:	ee66                	sd	s9,280(sp)
      putch('0', putdat);
    80000604:	85a6                	mv	a1,s1
    80000606:	03000513          	li	a0,48
    8000060a:	9902                	jalr	s2
      putch('x', putdat);
    8000060c:	85a6                	mv	a1,s1
    8000060e:	07800513          	li	a0,120
    80000612:	9902                	jalr	s2
      base = 16;
    80000614:	45c1                	li	a1,16
    return va_arg(*ap, unsigned long);
    80000616:	000c3783          	ld	a5,0(s8)
    8000061a:	0c21                	addi	s8,s8,8
    8000061c:	a809                	j	8000062e <vprintfmt+0x1ec>
    8000061e:	ee66                	sd	s9,280(sp)
      base = 16;
    80000620:	45c1                	li	a1,16
  if (lflag >= 2)
    80000622:	4785                	li	a5,1
    80000624:	06c7d663          	bge	a5,a2,80000690 <vprintfmt+0x24e>
    return va_arg(*ap, unsigned long long);
    80000628:	000c3783          	ld	a5,0(s8)
    8000062c:	0c21                	addi	s8,s8,8
      printnum(putch, putdat, num, base, width, padc);
    8000062e:	2b81                	sext.w	s7,s7
    digs[pos++] = num % base;
    80000630:	02059693          	slli	a3,a1,0x20
    80000634:	9281                	srli	a3,a3,0x20
    80000636:	02b7f733          	remu	a4,a5,a1
    8000063a:	c03a                	sw	a4,0(sp)
    if (num < base)
    8000063c:	0058                	addi	a4,sp,4
    digs[pos++] = num % base;
    8000063e:	4985                	li	s3,1
    if (num < base)
    80000640:	00b7eb63          	bltu	a5,a1,80000656 <vprintfmt+0x214>
    num /= base;
    80000644:	02d7d7b3          	divu	a5,a5,a3
    digs[pos++] = num % base;
    80000648:	2985                	addiw	s3,s3,1
    8000064a:	02d7f633          	remu	a2,a5,a3
    8000064e:	c310                	sw	a2,0(a4)
    if (num < base)
    80000650:	0711                	addi	a4,a4,4
    80000652:	fed7f9e3          	bgeu	a5,a3,80000644 <vprintfmt+0x202>
  while (width-- > pos)
    80000656:	fffb0a9b          	addiw	s5,s6,-1
    8000065a:	fff98c9b          	addiw	s9,s3,-1
    8000065e:	0169d863          	bge	s3,s6,8000066e <vprintfmt+0x22c>
    putch(padc, putdat);
    80000662:	85a6                	mv	a1,s1
    80000664:	855e                	mv	a0,s7
    80000666:	9902                	jalr	s2
  while (width-- > pos)
    80000668:	3afd                	addiw	s5,s5,-1
    8000066a:	ff9a9ce3          	bne	s5,s9,80000662 <vprintfmt+0x220>
  while (pos-- > 0)
    8000066e:	00299a93          	slli	s5,s3,0x2
    80000672:	100a8793          	addi	a5,s5,256
    80000676:	00278ab3          	add	s5,a5,sp
    8000067a:	efca8a93          	addi	s5,s5,-260
    putch(digs[pos] + (digs[pos] >= 10 ? 'a' - 10 : '0'), putdat);
    8000067e:	4ba5                	li	s7,9
    80000680:	03000b13          	li	s6,48
    80000684:	05700c93          	li	s9,87
    80000688:	a005                	j	800006a8 <vprintfmt+0x266>
    8000068a:	ee66                	sd	s9,280(sp)
    switch (ch = *(unsigned char *) fmt++) {
    8000068c:	45a9                	li	a1,10
    8000068e:	bf51                	j	80000622 <vprintfmt+0x1e0>
  else if (lflag)
    80000690:	f259                	bnez	a2,80000616 <vprintfmt+0x1d4>
    return va_arg(*ap, unsigned int);
    80000692:	000c6783          	lwu	a5,0(s8)
    80000696:	0c21                	addi	s8,s8,8
    80000698:	bf59                	j	8000062e <vprintfmt+0x1ec>
    putch(digs[pos] + (digs[pos] >= 10 ? 'a' - 10 : '0'), putdat);
    8000069a:	85a6                	mv	a1,s1
    8000069c:	9d3d                	addw	a0,a0,a5
    8000069e:	9902                	jalr	s2
  while (pos-- > 0)
    800006a0:	1af1                	addi	s5,s5,-4
    800006a2:	39fd                	addiw	s3,s3,-1
    800006a4:	01305963          	blez	s3,800006b6 <vprintfmt+0x274>
    putch(digs[pos] + (digs[pos] >= 10 ? 'a' - 10 : '0'), putdat);
    800006a8:	000aa783          	lw	a5,0(s5)
    800006ac:	855a                	mv	a0,s6
    800006ae:	fefbf6e3          	bgeu	s7,a5,8000069a <vprintfmt+0x258>
    800006b2:	8566                	mv	a0,s9
    800006b4:	b7dd                	j	8000069a <vprintfmt+0x258>
    800006b6:	6cf2                	ld	s9,280(sp)
    800006b8:	bb6d                	j	80000472 <vprintfmt+0x30>
      putch(ch, putdat);
    800006ba:	85a6                	mv	a1,s1
    800006bc:	02500513          	li	a0,37
    800006c0:	9902                	jalr	s2
      break;
    800006c2:	bb45                	j	80000472 <vprintfmt+0x30>
      putch('%', putdat);
    800006c4:	85a6                	mv	a1,s1
    800006c6:	02500513          	li	a0,37
    800006ca:	9902                	jalr	s2
      fmt = last_fmt;
    800006cc:	8456                	mv	s0,s5
      break;
    800006ce:	b355                	j	80000472 <vprintfmt+0x30>
      for (; (ch = *p) != '\0' && (precision < 0 || --precision >= 0); width--) {
    800006d0:	000c4503          	lbu	a0,0(s8)
    800006d4:	ec0519e3          	bnez	a0,800005a6 <vprintfmt+0x164>
      if ((p = va_arg(ap, char *)) == NULL)
    800006d8:	8c56                	mv	s8,s5
    800006da:	bb61                	j	80000472 <vprintfmt+0x30>
        p = "(null)";
    800006dc:	00000c17          	auipc	s8,0x0
    800006e0:	21cc0c13          	addi	s8,s8,540 # 800008f8 <atol+0x9e>
      for (; (ch = *p) != '\0' && (precision < 0 || --precision >= 0); width--) {
    800006e4:	02800513          	li	a0,40
      if (width > 0 && padc != '-')
    800006e8:	e7604ce3          	bgtz	s6,80000560 <vprintfmt+0x11e>
    800006ec:	bd6d                	j	800005a6 <vprintfmt+0x164>
}
    800006ee:	70b6                	ld	ra,360(sp)
    800006f0:	7416                	ld	s0,352(sp)
    800006f2:	64f6                	ld	s1,344(sp)
    800006f4:	6956                	ld	s2,336(sp)
    800006f6:	69b6                	ld	s3,328(sp)
    800006f8:	6a16                	ld	s4,320(sp)
    800006fa:	7af2                	ld	s5,312(sp)
    800006fc:	7b52                	ld	s6,304(sp)
    800006fe:	7bb2                	ld	s7,296(sp)
    80000700:	7c12                	ld	s8,288(sp)
    80000702:	6d52                	ld	s10,272(sp)
    80000704:	6db2                	ld	s11,264(sp)
    80000706:	6175                	addi	sp,sp,368
    80000708:	8082                	ret

000000008000070a <printf>:
{
    8000070a:	711d                	addi	sp,sp,-96
    8000070c:	ec06                	sd	ra,24(sp)
    8000070e:	f42e                	sd	a1,40(sp)
    80000710:	f832                	sd	a2,48(sp)
    80000712:	fc36                	sd	a3,56(sp)
    80000714:	e0ba                	sd	a4,64(sp)
    80000716:	e4be                	sd	a5,72(sp)
    80000718:	e8c2                	sd	a6,80(sp)
    8000071a:	ecc6                	sd	a7,88(sp)
  va_start(ap, fmt);
    8000071c:	1034                	addi	a3,sp,40
    8000071e:	e436                	sd	a3,8(sp)
  vprintfmt((void*)putchar, 0, fmt, ap);
    80000720:	862a                	mv	a2,a0
    80000722:	4581                	li	a1,0
    80000724:	00000517          	auipc	a0,0x0
    80000728:	b1050513          	addi	a0,a0,-1264 # 80000234 <putchar>
    8000072c:	d17ff0ef          	jal	80000442 <vprintfmt>
}
    80000730:	4501                	li	a0,0
    80000732:	60e2                	ld	ra,24(sp)
    80000734:	6125                	addi	sp,sp,96
    80000736:	8082                	ret

0000000080000738 <sprintf>:
{
    80000738:	711d                	addi	sp,sp,-96
    8000073a:	f406                	sd	ra,40(sp)
    8000073c:	f022                	sd	s0,32(sp)
    8000073e:	e42a                	sd	a0,8(sp)
    80000740:	f832                	sd	a2,48(sp)
    80000742:	fc36                	sd	a3,56(sp)
    80000744:	e0ba                	sd	a4,64(sp)
    80000746:	e4be                	sd	a5,72(sp)
    80000748:	e8c2                	sd	a6,80(sp)
    8000074a:	ecc6                	sd	a7,88(sp)
  char* str0 = str;
    8000074c:	842a                	mv	s0,a0
  va_start(ap, fmt);
    8000074e:	1814                	addi	a3,sp,48
    80000750:	ec36                	sd	a3,24(sp)
  vprintfmt(sprintf_putch, (void**)&str, fmt, ap);
    80000752:	862e                	mv	a2,a1
    80000754:	002c                	addi	a1,sp,8
    80000756:	00000517          	auipc	a0,0x0
    8000075a:	aaa50513          	addi	a0,a0,-1366 # 80000200 <sprintf_putch.0>
    8000075e:	ce5ff0ef          	jal	80000442 <vprintfmt>
  *str = 0;
    80000762:	67a2                	ld	a5,8(sp)
    80000764:	00078023          	sb	zero,0(a5)
}
    80000768:	6522                	ld	a0,8(sp)
    8000076a:	9d01                	subw	a0,a0,s0
    8000076c:	70a2                	ld	ra,40(sp)
    8000076e:	7402                	ld	s0,32(sp)
    80000770:	6125                	addi	sp,sp,96
    80000772:	8082                	ret

0000000080000774 <_init>:
{
    80000774:	7171                	addi	sp,sp,-176
    80000776:	f506                	sd	ra,168(sp)
    80000778:	f122                	sd	s0,160(sp)
    8000077a:	ed26                	sd	s1,152(sp)
    8000077c:	e94a                	sd	s2,144(sp)
    8000077e:	e54e                	sd	s3,136(sp)
    80000780:	e152                	sd	s4,128(sp)
    80000782:	fcd6                	sd	s5,120(sp)
    80000784:	84aa                	mv	s1,a0
    80000786:	892e                	mv	s2,a1
    80000788:	03f10413          	addi	s0,sp,63
    8000078c:	fc047413          	andi	s0,s0,-64
  size_t tdata_size = &_tdata_end - &_tdata_begin;
    80000790:	82018a13          	addi	s4,gp,-2016 # 80001068 <_end>
    80000794:	82018593          	addi	a1,gp,-2016 # 80001068 <_end>
    80000798:	40ba09b3          	sub	s3,s4,a1
  memcpy(thread_pointer, &_tdata_begin, tdata_size);
    8000079c:	8a92                	mv	s5,tp
    8000079e:	864e                	mv	a2,s3
    800007a0:	8512                	mv	a0,tp
    800007a2:	bddff0ef          	jal	8000037e <memcpy>
  memset(thread_pointer + tdata_size, 0, tbss_size);
    800007a6:	82018613          	addi	a2,gp,-2016 # 80001068 <_end>
    800007aa:	41460633          	sub	a2,a2,s4
    800007ae:	4581                	li	a1,0
    800007b0:	013a8533          	add	a0,s5,s3
    800007b4:	c0fff0ef          	jal	800003c2 <memset>
  thread_entry(cid, nc);
    800007b8:	85ca                	mv	a1,s2
    800007ba:	8526                	mv	a0,s1
    800007bc:	b5dff0ef          	jal	80000318 <thread_entry>
	*UART_LCR = 0b0000011; // 8-bit characters, 1 stop bit, no parity
    800007c0:	100007b7          	lui	a5,0x10000
    800007c4:	470d                	li	a4,3
    800007c6:	00e781a3          	sb	a4,3(a5) # 10000003 <_start-0x6ffffffd>
  int ret = main(0, 0);
    800007ca:	4581                	li	a1,0
    800007cc:	4501                	li	a0,0
    800007ce:	b51ff0ef          	jal	8000031e <main>
    800007d2:	84aa                	mv	s1,a0
    if (counters[i])
    800007d4:	00001697          	auipc	a3,0x1
    800007d8:	8746b683          	ld	a3,-1932(a3) # 80001048 <counters>
    800007dc:	e69d                	bnez	a3,8000080a <_init+0x96>
    800007de:	8081b683          	ld	a3,-2040(gp) # 80001050 <counters+0x8>
    800007e2:	c28d                	beqz	a3,80000804 <_init+0x90>
  char* pbuf = buf;
    800007e4:	8922                	mv	s2,s0
      pbuf += sprintf(pbuf, "%s = %d\n", counter_names[i], counters[i]);
    800007e6:	8181b603          	ld	a2,-2024(gp) # 80001060 <counter_names+0x8>
    800007ea:	00000597          	auipc	a1,0x0
    800007ee:	11658593          	addi	a1,a1,278 # 80000900 <atol+0xa6>
    800007f2:	854a                	mv	a0,s2
    800007f4:	f45ff0ef          	jal	80000738 <sprintf>
    800007f8:	992a                	add	s2,s2,a0
  if (pbuf != buf)
    800007fa:	01240563          	beq	s0,s2,80000804 <_init+0x90>
  uartPutStr(s);
    800007fe:	8522                	mv	a0,s0
    80000800:	a61ff0ef          	jal	80000260 <uartPutStr>
  tohost_exit(code);
    80000804:	8526                	mv	a0,s1
    80000806:	ac3ff0ef          	jal	800002c8 <tohost_exit>
      pbuf += sprintf(pbuf, "%s = %d\n", counter_names[i], counters[i]);
    8000080a:	00001997          	auipc	s3,0x1
    8000080e:	83e98993          	addi	s3,s3,-1986 # 80001048 <counters>
    80000812:	0109b603          	ld	a2,16(s3)
    80000816:	00000597          	auipc	a1,0x0
    8000081a:	0ea58593          	addi	a1,a1,234 # 80000900 <atol+0xa6>
    8000081e:	8522                	mv	a0,s0
    80000820:	f19ff0ef          	jal	80000738 <sprintf>
    80000824:	00a40933          	add	s2,s0,a0
    if (counters[i])
    80000828:	0089b683          	ld	a3,8(s3)
    8000082c:	d6f9                	beqz	a3,800007fa <_init+0x86>
    8000082e:	bf65                	j	800007e6 <_init+0x72>

0000000080000830 <strcmp>:
int strcmp(const char* s1, const char* s2)
{
  unsigned char c1, c2;

  do {
    c1 = *s1++;
    80000830:	0505                	addi	a0,a0,1
    80000832:	fff54783          	lbu	a5,-1(a0)
    c2 = *s2++;
    80000836:	0585                	addi	a1,a1,1
    80000838:	fff5c703          	lbu	a4,-1(a1)
  } while (c1 != 0 && c1 == c2);
    8000083c:	c399                	beqz	a5,80000842 <strcmp+0x12>
    8000083e:	fee789e3          	beq	a5,a4,80000830 <strcmp>

  return c1 - c2;
}
    80000842:	40e7853b          	subw	a0,a5,a4
    80000846:	8082                	ret

0000000080000848 <strcpy>:

char* strcpy(char* dest, const char* src)
{
  char* d = dest;
    80000848:	87aa                	mv	a5,a0
  while ((*d++ = *src++))
    8000084a:	0585                	addi	a1,a1,1
    8000084c:	0785                	addi	a5,a5,1
    8000084e:	fff5c703          	lbu	a4,-1(a1)
    80000852:	fee78fa3          	sb	a4,-1(a5)
    80000856:	fb75                	bnez	a4,8000084a <strcpy+0x2>
    ;
  return dest;
}
    80000858:	8082                	ret

000000008000085a <atol>:
long atol(const char* str)
{
  long res = 0;
  int sign = 0;

  while (*str == ' ')
    8000085a:	00054783          	lbu	a5,0(a0)
    8000085e:	02000713          	li	a4,32
    80000862:	00e79763          	bne	a5,a4,80000870 <atol+0x16>
    str++;
    80000866:	0505                	addi	a0,a0,1
  while (*str == ' ')
    80000868:	00054783          	lbu	a5,0(a0)
    8000086c:	fee78de3          	beq	a5,a4,80000866 <atol+0xc>

  if (*str == '-' || *str == '+') {
    80000870:	fd57871b          	addiw	a4,a5,-43
    80000874:	0fd77713          	andi	a4,a4,253
    80000878:	cb01                	beqz	a4,80000888 <atol+0x2e>
    sign = *str == '-';
    str++;
  }

  while (*str) {
    8000087a:	00054703          	lbu	a4,0(a0)
    8000087e:	86aa                	mv	a3,a0
  int sign = 0;
    80000880:	4601                	li	a2,0
  while (*str) {
    80000882:	ef01                	bnez	a4,8000089a <atol+0x40>
    80000884:	4501                	li	a0,0
    res *= 10;
    res += *str++ - '0';
  }

  return sign ? -res : res;
}
    80000886:	8082                	ret
    sign = *str == '-';
    80000888:	fd378793          	addi	a5,a5,-45
    8000088c:	0017b613          	seqz	a2,a5
    str++;
    80000890:	00150693          	addi	a3,a0,1
  while (*str) {
    80000894:	00154703          	lbu	a4,1(a0)
    80000898:	c315                	beqz	a4,800008bc <atol+0x62>
  int sign = 0;
    8000089a:	4501                	li	a0,0
    res *= 10;
    8000089c:	00251793          	slli	a5,a0,0x2
    800008a0:	97aa                	add	a5,a5,a0
    800008a2:	0786                	slli	a5,a5,0x1
    res += *str++ - '0';
    800008a4:	0685                	addi	a3,a3,1
    800008a6:	fd07071b          	addiw	a4,a4,-48
    800008aa:	00f70533          	add	a0,a4,a5
  while (*str) {
    800008ae:	0006c703          	lbu	a4,0(a3)
    800008b2:	f76d                	bnez	a4,8000089c <atol+0x42>
  return sign ? -res : res;
    800008b4:	da69                	beqz	a2,80000886 <atol+0x2c>
    800008b6:	40a00533          	neg	a0,a0
    800008ba:	8082                	ret
  while (*str) {
    800008bc:	4501                	li	a0,0
    800008be:	bfdd                	j	800008b4 <atol+0x5a>

Disassembly of section .rodata.str1.8:

00000000800008c0 <.rodata.str1.8>:
    800008c0:	636d                	lui	t1,0x1b
    800008c2:	6379                	lui	t1,0x1e
    800008c4:	656c                	ld	a1,200(a0)
	...
    800008ce:	0000                	unimp
    800008d0:	696d                	lui	s2,0x1b
    800008d2:	736e                	ld	t1,248(sp)
    800008d4:	7274                	ld	a3,224(a2)
    800008d6:	7465                	lui	s0,0xffff9
	...
    800008e0:	6d49                	lui	s10,0x12
    800008e2:	6c70                	ld	a2,216(s0)
    800008e4:	6d65                	lui	s10,0x19
    800008e6:	6e65                	lui	t3,0x19
    800008e8:	2074                	fld	fa3,192(s0)
    800008ea:	616d                	addi	sp,sp,240
    800008ec:	6e69                	lui	t3,0x1a
    800008ee:	2928                	fld	fa0,80(a0)
    800008f0:	202c                	fld	fa1,64(s0)
    800008f2:	6f66                	ld	t5,88(sp)
    800008f4:	000a216f          	jal	sp,800a28f4 <__global_pointer$+0xa10ac>
    800008f8:	6e28                	ld	a0,88(a2)
    800008fa:	6c75                	lui	s8,0x1d
    800008fc:	296c                	fld	fa1,208(a0)
    800008fe:	0000                	unimp
    80000900:	7325                	lui	t1,0xfffe9
    80000902:	3d20                	fld	fs0,120(a0)
    80000904:	2520                	fld	fs0,72(a0)
    80000906:	0a64                	addi	s1,sp,284
	...

Disassembly of section .rodata:

000000008000090c <.rodata>:
    8000090c:	fc26                	sd	s1,56(sp)
    8000090e:	ffff                	.insn	2, 0xffff
    80000910:	fdb8                	sd	a4,120(a1)
    80000912:	ffff                	.insn	2, 0xffff
    80000914:	fdae                	sd	a1,248(sp)
    80000916:	ffff                	.insn	2, 0xffff
    80000918:	fdb8                	sd	a4,120(a1)
    8000091a:	ffff                	.insn	2, 0xffff
    8000091c:	fdb8                	sd	a4,120(a1)
    8000091e:	ffff                	.insn	2, 0xffff
    80000920:	fdb8                	sd	a4,120(a1)
    80000922:	ffff                	.insn	2, 0xffff
    80000924:	fdb8                	sd	a4,120(a1)
    80000926:	ffff                	.insn	2, 0xffff
    80000928:	fc02                	sd	zero,56(sp)
    8000092a:	ffff                	.insn	2, 0xffff
    8000092c:	fdb8                	sd	a4,120(a1)
    8000092e:	ffff                	.insn	2, 0xffff
    80000930:	fdb8                	sd	a4,120(a1)
    80000932:	ffff                	.insn	2, 0xffff
    80000934:	fbb8                	sd	a4,112(a5)
    80000936:	ffff                	.insn	2, 0xffff
    80000938:	fc14                	sd	a3,56(s0)
    8000093a:	ffff                	.insn	2, 0xffff
    8000093c:	fdb8                	sd	a4,120(a1)
    8000093e:	ffff                	.insn	2, 0xffff
    80000940:	fbb8                	sd	a4,112(a5)
    80000942:	ffff                	.insn	2, 0xffff
    80000944:	fbc4                	sd	s1,176(a5)
    80000946:	ffff                	.insn	2, 0xffff
    80000948:	fbc4                	sd	s1,176(a5)
    8000094a:	ffff                	.insn	2, 0xffff
    8000094c:	fbc4                	sd	s1,176(a5)
    8000094e:	ffff                	.insn	2, 0xffff
    80000950:	fbc4                	sd	s1,176(a5)
    80000952:	ffff                	.insn	2, 0xffff
    80000954:	fbc4                	sd	s1,176(a5)
    80000956:	ffff                	.insn	2, 0xffff
    80000958:	fbc4                	sd	s1,176(a5)
    8000095a:	ffff                	.insn	2, 0xffff
    8000095c:	fbc4                	sd	s1,176(a5)
    8000095e:	ffff                	.insn	2, 0xffff
    80000960:	fbc4                	sd	s1,176(a5)
    80000962:	ffff                	.insn	2, 0xffff
    80000964:	fbc4                	sd	s1,176(a5)
    80000966:	ffff                	.insn	2, 0xffff
    80000968:	fdb8                	sd	a4,120(a1)
    8000096a:	ffff                	.insn	2, 0xffff
    8000096c:	fdb8                	sd	a4,120(a1)
    8000096e:	ffff                	.insn	2, 0xffff
    80000970:	fdb8                	sd	a4,120(a1)
    80000972:	ffff                	.insn	2, 0xffff
    80000974:	fdb8                	sd	a4,120(a1)
    80000976:	ffff                	.insn	2, 0xffff
    80000978:	fdb8                	sd	a4,120(a1)
    8000097a:	ffff                	.insn	2, 0xffff
    8000097c:	fdb8                	sd	a4,120(a1)
    8000097e:	ffff                	.insn	2, 0xffff
    80000980:	fdb8                	sd	a4,120(a1)
    80000982:	ffff                	.insn	2, 0xffff
    80000984:	fdb8                	sd	a4,120(a1)
    80000986:	ffff                	.insn	2, 0xffff
    80000988:	fdb8                	sd	a4,120(a1)
    8000098a:	ffff                	.insn	2, 0xffff
    8000098c:	fdb8                	sd	a4,120(a1)
    8000098e:	ffff                	.insn	2, 0xffff
    80000990:	fdb8                	sd	a4,120(a1)
    80000992:	ffff                	.insn	2, 0xffff
    80000994:	fdb8                	sd	a4,120(a1)
    80000996:	ffff                	.insn	2, 0xffff
    80000998:	fdb8                	sd	a4,120(a1)
    8000099a:	ffff                	.insn	2, 0xffff
    8000099c:	fdb8                	sd	a4,120(a1)
    8000099e:	ffff                	.insn	2, 0xffff
    800009a0:	fdb8                	sd	a4,120(a1)
    800009a2:	ffff                	.insn	2, 0xffff
    800009a4:	fdb8                	sd	a4,120(a1)
    800009a6:	ffff                	.insn	2, 0xffff
    800009a8:	fdb8                	sd	a4,120(a1)
    800009aa:	ffff                	.insn	2, 0xffff
    800009ac:	fdb8                	sd	a4,120(a1)
    800009ae:	ffff                	.insn	2, 0xffff
    800009b0:	fdb8                	sd	a4,120(a1)
    800009b2:	ffff                	.insn	2, 0xffff
    800009b4:	fdb8                	sd	a4,120(a1)
    800009b6:	ffff                	.insn	2, 0xffff
    800009b8:	fdb8                	sd	a4,120(a1)
    800009ba:	ffff                	.insn	2, 0xffff
    800009bc:	fdb8                	sd	a4,120(a1)
    800009be:	ffff                	.insn	2, 0xffff
    800009c0:	fdb8                	sd	a4,120(a1)
    800009c2:	ffff                	.insn	2, 0xffff
    800009c4:	fdb8                	sd	a4,120(a1)
    800009c6:	ffff                	.insn	2, 0xffff
    800009c8:	fdb8                	sd	a4,120(a1)
    800009ca:	ffff                	.insn	2, 0xffff
    800009cc:	fdb8                	sd	a4,120(a1)
    800009ce:	ffff                	.insn	2, 0xffff
    800009d0:	fdb8                	sd	a4,120(a1)
    800009d2:	ffff                	.insn	2, 0xffff
    800009d4:	fdb8                	sd	a4,120(a1)
    800009d6:	ffff                	.insn	2, 0xffff
    800009d8:	fdb8                	sd	a4,120(a1)
    800009da:	ffff                	.insn	2, 0xffff
    800009dc:	fdb8                	sd	a4,120(a1)
    800009de:	ffff                	.insn	2, 0xffff
    800009e0:	fdb8                	sd	a4,120(a1)
    800009e2:	ffff                	.insn	2, 0xffff
    800009e4:	fdb8                	sd	a4,120(a1)
    800009e6:	ffff                	.insn	2, 0xffff
    800009e8:	fdb8                	sd	a4,120(a1)
    800009ea:	ffff                	.insn	2, 0xffff
    800009ec:	fdb8                	sd	a4,120(a1)
    800009ee:	ffff                	.insn	2, 0xffff
    800009f0:	fdb8                	sd	a4,120(a1)
    800009f2:	ffff                	.insn	2, 0xffff
    800009f4:	fdb8                	sd	a4,120(a1)
    800009f6:	ffff                	.insn	2, 0xffff
    800009f8:	fdb8                	sd	a4,120(a1)
    800009fa:	ffff                	.insn	2, 0xffff
    800009fc:	fdb8                	sd	a4,120(a1)
    800009fe:	ffff                	.insn	2, 0xffff
    80000a00:	fdb8                	sd	a4,120(a1)
    80000a02:	ffff                	.insn	2, 0xffff
    80000a04:	fdb8                	sd	a4,120(a1)
    80000a06:	ffff                	.insn	2, 0xffff
    80000a08:	fdb8                	sd	a4,120(a1)
    80000a0a:	ffff                	.insn	2, 0xffff
    80000a0c:	fc34                	sd	a3,120(s0)
    80000a0e:	ffff                	.insn	2, 0xffff
    80000a10:	fcbc                	sd	a5,120(s1)
    80000a12:	ffff                	.insn	2, 0xffff
    80000a14:	fdb8                	sd	a4,120(a1)
    80000a16:	ffff                	.insn	2, 0xffff
    80000a18:	fdb8                	sd	a4,120(a1)
    80000a1a:	ffff                	.insn	2, 0xffff
    80000a1c:	fdb8                	sd	a4,120(a1)
    80000a1e:	ffff                	.insn	2, 0xffff
    80000a20:	fdb8                	sd	a4,120(a1)
    80000a22:	ffff                	.insn	2, 0xffff
    80000a24:	fdb8                	sd	a4,120(a1)
    80000a26:	ffff                	.insn	2, 0xffff
    80000a28:	fdb8                	sd	a4,120(a1)
    80000a2a:	ffff                	.insn	2, 0xffff
    80000a2c:	fdb8                	sd	a4,120(a1)
    80000a2e:	ffff                	.insn	2, 0xffff
    80000a30:	fc2e                	sd	a1,56(sp)
    80000a32:	ffff                	.insn	2, 0xffff
    80000a34:	fdb8                	sd	a4,120(a1)
    80000a36:	ffff                	.insn	2, 0xffff
    80000a38:	fdb8                	sd	a4,120(a1)
    80000a3a:	ffff                	.insn	2, 0xffff
    80000a3c:	fbbe                	sd	a5,496(sp)
    80000a3e:	ffff                	.insn	2, 0xffff
    80000a40:	fcf6                	sd	t4,120(sp)
    80000a42:	ffff                	.insn	2, 0xffff
    80000a44:	fdb8                	sd	a4,120(a1)
    80000a46:	ffff                	.insn	2, 0xffff
    80000a48:	fdb8                	sd	a4,120(a1)
    80000a4a:	ffff                	.insn	2, 0xffff
    80000a4c:	fc44                	sd	s1,184(s0)
    80000a4e:	ffff                	.insn	2, 0xffff
    80000a50:	fdb8                	sd	a4,120(a1)
    80000a52:	ffff                	.insn	2, 0xffff
    80000a54:	fd7e                	sd	t6,184(sp)
    80000a56:	ffff                	.insn	2, 0xffff
    80000a58:	fdb8                	sd	a4,120(a1)
    80000a5a:	ffff                	.insn	2, 0xffff
    80000a5c:	fdb8                	sd	a4,120(a1)
    80000a5e:	ffff                	.insn	2, 0xffff
    80000a60:	fd12                	sd	tp,184(sp)
    80000a62:	ffff                	.insn	2, 0xffff

Disassembly of section .tohost:

0000000080001000 <tohost>:
	...

0000000080001040 <fromhost>:
	...

Disassembly of section .riscv.attributes:

0000000000000000 <_tbss_end-0x80001068>:
   0:	6941                	lui	s2,0x10
   2:	0000                	unimp
   4:	7200                	ld	s0,32(a2)
   6:	7369                	lui	t1,0xffffa
   8:	01007663          	bgeu	zero,a6,14 <_start-0x7fffffec>
   c:	005f 0000 1004      	.insn	6, 0x10040000005f
  12:	7205                	lui	tp,0xfffe1
  14:	3676                	fld	fa2,376(sp)
  16:	6934                	ld	a3,80(a0)
  18:	7032                	.insn	2, 0x7032
  1a:	5f31                	li	t5,-20
  1c:	326d                	addiw	tp,tp,-5 # fffffffffffe0ffb <__global_pointer$+0xffffffff7ffdf7b3>
  1e:	3070                	fld	fa2,224(s0)
  20:	615f 7032 5f31      	.insn	6, 0x5f317032615f
  26:	3266                	fld	ft4,120(sp)
  28:	3270                	fld	fa2,224(a2)
  2a:	645f 7032 5f32      	.insn	6, 0x5f327032645f
  30:	30703263          	.insn	4, 0x30703263
  34:	7a5f 6369 7273      	.insn	6, 0x727363697a5f
  3a:	7032                	.insn	2, 0x7032
  3c:	5f30                	lw	a2,120(a4)
  3e:	697a                	ld	s2,408(sp)
  40:	6566                	ld	a0,88(sp)
  42:	636e                	ld	t1,216(sp)
  44:	6965                	lui	s2,0x19
  46:	7032                	.insn	2, 0x7032
  48:	5f30                	lw	a2,120(a4)
  4a:	6d7a                	ld	s10,408(sp)
  4c:	756d                	lui	a0,0xffffb
  4e:	316c                	fld	fa1,224(a0)
  50:	3070                	fld	fa2,224(s0)
  52:	7a5f 6161 6f6d      	.insn	6, 0x6f6d61617a5f
  58:	7031                	c.lui	zero,0xfffec
  5a:	5f30                	lw	a2,120(a4)
  5c:	617a                	ld	sp,408(sp)
  5e:	726c                	ld	a1,224(a2)
  60:	70316373          	csrrsi	t1,0x703,2
  64:	0030                	addi	a2,sp,8
  66:	0108                	addi	a0,sp,128
  68:	0b0a                	slli	s6,s6,0x2

Disassembly of section .comment:

0000000000000000 <.comment>:
   0:	3a434347          	fmsub.d	ft6,ft6,ft4,ft7,rmm
   4:	2820                	fld	fs0,80(s0)
   6:	2029                	.insn	2, 0x2029
   8:	3431                	addiw	s0,s0,-20 # ffffffffffff8fec <__global_pointer$+0xffffffff7fff77a4>
   a:	322e                	fld	ft4,232(sp)
   c:	302e                	fld	ft0,232(sp)
	...

Disassembly of section .debug_line:

0000000000000000 <.debug_line>:
       0:	00b2                	slli	ra,ra,0xc
       2:	0000                	unimp
       4:	0002                	c.slli64	zero
       6:	001a                	c.slli	zero,0x6
       8:	0000                	unimp
       a:	0101                	addi	sp,sp,0
       c:	000a0efb          	.insn	4, 0x000a0efb
      10:	0101                	addi	sp,sp,0
      12:	0101                	addi	sp,sp,0
      14:	0000                	unimp
      16:	0100                	addi	s0,sp,128
      18:	6600                	ld	s0,8(a2)
      1a:	7269                	lui	tp,0xffffa
      1c:	2e31                	addiw	t3,t3,12 # 1a00c <_start-0x7ffe5ff4>
      1e:	00000053          	fadd.s	ft0,ft0,ft0,rne
      22:	0000                	unimp
      24:	0900                	addi	s0,sp,144
      26:	c202                	sw	zero,4(sp)
      28:	0001                	nop
      2a:	0080                	addi	s0,sp,64
      2c:	0000                	unimp
      2e:	0300                	addi	s0,sp,384
      30:	01030117          	auipc	sp,0x1030
      34:	0409                	addi	s0,s0,2
      36:	0100                	addi	s0,sp,128
      38:	02090103          	lb	sp,32(s2) # 19020 <_start-0x7ffe6fe0>
      3c:	0100                	addi	s0,sp,128
      3e:	02090103          	lb	sp,32(s2)
      42:	0100                	addi	s0,sp,128
      44:	02090303          	lb	t1,32(s2)
      48:	0100                	addi	s0,sp,128
      4a:	04090203          	lb	tp,64(s2)
      4e:	0100                	addi	s0,sp,128
      50:	02090203          	lb	tp,32(s2)
      54:	0100                	addi	s0,sp,128
      56:	02090103          	lb	sp,32(s2)
      5a:	0100                	addi	s0,sp,128
      5c:	04090103          	lb	sp,64(s2)
      60:	0100                	addi	s0,sp,128
      62:	02090203          	lb	tp,32(s2)
      66:	0100                	addi	s0,sp,128
      68:	04090303          	lb	t1,64(s2)
      6c:	0100                	addi	s0,sp,128
      6e:	04090203          	lb	tp,64(s2)
      72:	0100                	addi	s0,sp,128
      74:	04090103          	lb	sp,64(s2)
      78:	0100                	addi	s0,sp,128
      7a:	04090203          	lb	tp,64(s2)
      7e:	0100                	addi	s0,sp,128
      80:	04090103          	lb	sp,64(s2)
      84:	0100                	addi	s0,sp,128
      86:	02090203          	lb	tp,32(s2)
      8a:	0100                	addi	s0,sp,128
      8c:	02090103          	lb	sp,32(s2)
      90:	0100                	addi	s0,sp,128
      92:	02090203          	lb	tp,32(s2)
      96:	0100                	addi	s0,sp,128
      98:	02090303          	lb	t1,32(s2)
      9c:	0100                	addi	s0,sp,128
      9e:	04090103          	lb	sp,64(s2)
      a2:	0100                	addi	s0,sp,128
      a4:	02090203          	lb	tp,32(s2)
      a8:	0100                	addi	s0,sp,128
      aa:	02090303          	lb	t1,32(s2)
      ae:	0100                	addi	s0,sp,128
      b0:	0209                	addi	tp,tp,2 # ffffffffffffa002 <__global_pointer$+0xffffffff7fff87ba>
      b2:	0000                	unimp
      b4:	0101                	addi	sp,sp,0 # 1030030 <_start-0x7efcffd0>
      b6:	000003f7          	.insn	4, 0x03f7
      ba:	0002                	c.slli64	zero
      bc:	00000023          	sb	zero,0(zero) # 0 <_start-0x80000000>
      c0:	0101                	addi	sp,sp,0
      c2:	000a0efb          	.insn	4, 0x000a0efb
      c6:	0101                	addi	sp,sp,0
      c8:	0101                	addi	sp,sp,0
      ca:	0000                	unimp
      cc:	0100                	addi	s0,sp,128
      ce:	2e2e                	fld	ft8,200(sp)
      d0:	6d6f632f          	.insn	4, 0x6d6f632f
      d4:	6f6d                	lui	t5,0x1b
      d6:	006e                	c.slli	zero,0x1b
      d8:	6300                	ld	s0,0(a4)
      da:	7472                	ld	s0,312(sp)
      dc:	532e                	lw	t1,232(sp)
      de:	0100                	addi	s0,sp,128
      e0:	0000                	unimp
      e2:	0000                	unimp
      e4:	0209                	addi	tp,tp,2 # 2 <_start-0x7ffffffe>
      e6:	0000                	unimp
      e8:	8000                	.insn	2, 0x8000
      ea:	0000                	unimp
      ec:	0000                	unimp
      ee:	03011103          	lh	sp,48(sp)
      f2:	0901                	addi	s2,s2,0
      f4:	0002                	c.slli64	zero
      f6:	0301                	addi	t1,t1,0 # ffffffffffffa000 <__global_pointer$+0xffffffff7fff87b8>
      f8:	0901                	addi	s2,s2,0
      fa:	0002                	c.slli64	zero
      fc:	0301                	addi	t1,t1,0
      fe:	0901                	addi	s2,s2,0
     100:	0002                	c.slli64	zero
     102:	0301                	addi	t1,t1,0
     104:	0901                	addi	s2,s2,0
     106:	0002                	c.slli64	zero
     108:	0301                	addi	t1,t1,0
     10a:	0901                	addi	s2,s2,0
     10c:	0002                	c.slli64	zero
     10e:	0301                	addi	t1,t1,0
     110:	0901                	addi	s2,s2,0
     112:	0002                	c.slli64	zero
     114:	0301                	addi	t1,t1,0
     116:	0901                	addi	s2,s2,0
     118:	0002                	c.slli64	zero
     11a:	0301                	addi	t1,t1,0
     11c:	0901                	addi	s2,s2,0
     11e:	0002                	c.slli64	zero
     120:	0301                	addi	t1,t1,0
     122:	0901                	addi	s2,s2,0
     124:	0002                	c.slli64	zero
     126:	0301                	addi	t1,t1,0
     128:	0901                	addi	s2,s2,0
     12a:	0002                	c.slli64	zero
     12c:	0301                	addi	t1,t1,0
     12e:	0901                	addi	s2,s2,0
     130:	0002                	c.slli64	zero
     132:	0301                	addi	t1,t1,0
     134:	0901                	addi	s2,s2,0
     136:	0002                	c.slli64	zero
     138:	0301                	addi	t1,t1,0
     13a:	0901                	addi	s2,s2,0
     13c:	0002                	c.slli64	zero
     13e:	0301                	addi	t1,t1,0
     140:	0901                	addi	s2,s2,0
     142:	0002                	c.slli64	zero
     144:	0301                	addi	t1,t1,0
     146:	0901                	addi	s2,s2,0
     148:	0002                	c.slli64	zero
     14a:	0301                	addi	t1,t1,0
     14c:	0901                	addi	s2,s2,0
     14e:	0002                	c.slli64	zero
     150:	0301                	addi	t1,t1,0
     152:	0901                	addi	s2,s2,0
     154:	0002                	c.slli64	zero
     156:	0301                	addi	t1,t1,0
     158:	0901                	addi	s2,s2,0
     15a:	0002                	c.slli64	zero
     15c:	0301                	addi	t1,t1,0
     15e:	0901                	addi	s2,s2,0
     160:	0002                	c.slli64	zero
     162:	0301                	addi	t1,t1,0
     164:	0901                	addi	s2,s2,0
     166:	0002                	c.slli64	zero
     168:	0301                	addi	t1,t1,0
     16a:	0901                	addi	s2,s2,0
     16c:	0002                	c.slli64	zero
     16e:	0301                	addi	t1,t1,0
     170:	0901                	addi	s2,s2,0
     172:	0002                	c.slli64	zero
     174:	0301                	addi	t1,t1,0
     176:	0901                	addi	s2,s2,0
     178:	0002                	c.slli64	zero
     17a:	0301                	addi	t1,t1,0
     17c:	0901                	addi	s2,s2,0
     17e:	0002                	c.slli64	zero
     180:	0301                	addi	t1,t1,0
     182:	0901                	addi	s2,s2,0
     184:	0002                	c.slli64	zero
     186:	0301                	addi	t1,t1,0
     188:	0901                	addi	s2,s2,0
     18a:	0002                	c.slli64	zero
     18c:	0301                	addi	t1,t1,0
     18e:	0901                	addi	s2,s2,0
     190:	0002                	c.slli64	zero
     192:	0301                	addi	t1,t1,0
     194:	0901                	addi	s2,s2,0
     196:	0002                	c.slli64	zero
     198:	0301                	addi	t1,t1,0
     19a:	0901                	addi	s2,s2,0
     19c:	0002                	c.slli64	zero
     19e:	0301                	addi	t1,t1,0
     1a0:	0901                	addi	s2,s2,0
     1a2:	0002                	c.slli64	zero
     1a4:	0301                	addi	t1,t1,0
     1a6:	00020903          	lb	s2,0(tp) # 0 <_start-0x80000000>
     1aa:	0301                	addi	t1,t1,0
     1ac:	0901                	addi	s2,s2,0
     1ae:	0002                	c.slli64	zero
     1b0:	0301                	addi	t1,t1,0
     1b2:	00040903          	lb	s2,0(s0)
     1b6:	0301                	addi	t1,t1,0
     1b8:	0901                	addi	s2,s2,0
     1ba:	0002                	c.slli64	zero
     1bc:	0301                	addi	t1,t1,0
     1be:	0902                	c.slli64	s2
     1c0:	0002                	c.slli64	zero
     1c2:	0301                	addi	t1,t1,0
     1c4:	0905                	addi	s2,s2,1
     1c6:	0004                	.insn	2, 0x0004
     1c8:	0301                	addi	t1,t1,0
     1ca:	0901                	addi	s2,s2,0
     1cc:	0002                	c.slli64	zero
     1ce:	0301                	addi	t1,t1,0
     1d0:	0901                	addi	s2,s2,0
     1d2:	0008                	.insn	2, 0x0008
     1d4:	0301                	addi	t1,t1,0
     1d6:	0905                	addi	s2,s2,1
     1d8:	0002                	c.slli64	zero
     1da:	0301                	addi	t1,t1,0
     1dc:	0901                	addi	s2,s2,0
     1de:	0008                	.insn	2, 0x0008
     1e0:	0301                	addi	t1,t1,0
     1e2:	0902                	c.slli64	s2
     1e4:	0004                	.insn	2, 0x0004
     1e6:	0301                	addi	t1,t1,0
     1e8:	0901                	addi	s2,s2,0
     1ea:	0004                	.insn	2, 0x0004
     1ec:	0301                	addi	t1,t1,0
     1ee:	0901                	addi	s2,s2,0
     1f0:	0004                	.insn	2, 0x0004
     1f2:	0301                	addi	t1,t1,0
     1f4:	0901                	addi	s2,s2,0
     1f6:	0004                	.insn	2, 0x0004
     1f8:	0301                	addi	t1,t1,0
     1fa:	0901                	addi	s2,s2,0
     1fc:	0004                	.insn	2, 0x0004
     1fe:	0301                	addi	t1,t1,0
     200:	0901                	addi	s2,s2,0
     202:	0004                	.insn	2, 0x0004
     204:	0301                	addi	t1,t1,0
     206:	0901                	addi	s2,s2,0
     208:	0004                	.insn	2, 0x0004
     20a:	0301                	addi	t1,t1,0
     20c:	0901                	addi	s2,s2,0
     20e:	0004                	.insn	2, 0x0004
     210:	0301                	addi	t1,t1,0
     212:	0901                	addi	s2,s2,0
     214:	0004                	.insn	2, 0x0004
     216:	0301                	addi	t1,t1,0
     218:	0901                	addi	s2,s2,0
     21a:	0004                	.insn	2, 0x0004
     21c:	0301                	addi	t1,t1,0
     21e:	0901                	addi	s2,s2,0
     220:	0004                	.insn	2, 0x0004
     222:	0301                	addi	t1,t1,0
     224:	0901                	addi	s2,s2,0
     226:	0004                	.insn	2, 0x0004
     228:	0301                	addi	t1,t1,0
     22a:	0901                	addi	s2,s2,0
     22c:	0004                	.insn	2, 0x0004
     22e:	0301                	addi	t1,t1,0
     230:	0901                	addi	s2,s2,0
     232:	0004                	.insn	2, 0x0004
     234:	0301                	addi	t1,t1,0
     236:	0901                	addi	s2,s2,0
     238:	0004                	.insn	2, 0x0004
     23a:	0301                	addi	t1,t1,0
     23c:	0901                	addi	s2,s2,0
     23e:	0004                	.insn	2, 0x0004
     240:	0301                	addi	t1,t1,0
     242:	0901                	addi	s2,s2,0
     244:	0004                	.insn	2, 0x0004
     246:	0301                	addi	t1,t1,0
     248:	0901                	addi	s2,s2,0
     24a:	0004                	.insn	2, 0x0004
     24c:	0301                	addi	t1,t1,0
     24e:	0901                	addi	s2,s2,0
     250:	0004                	.insn	2, 0x0004
     252:	0301                	addi	t1,t1,0
     254:	0901                	addi	s2,s2,0
     256:	0004                	.insn	2, 0x0004
     258:	0301                	addi	t1,t1,0
     25a:	0901                	addi	s2,s2,0
     25c:	0004                	.insn	2, 0x0004
     25e:	0301                	addi	t1,t1,0
     260:	0901                	addi	s2,s2,0
     262:	0004                	.insn	2, 0x0004
     264:	0301                	addi	t1,t1,0
     266:	0901                	addi	s2,s2,0
     268:	0004                	.insn	2, 0x0004
     26a:	0301                	addi	t1,t1,0
     26c:	0901                	addi	s2,s2,0
     26e:	0004                	.insn	2, 0x0004
     270:	0301                	addi	t1,t1,0
     272:	0901                	addi	s2,s2,0
     274:	0004                	.insn	2, 0x0004
     276:	0301                	addi	t1,t1,0
     278:	0901                	addi	s2,s2,0
     27a:	0004                	.insn	2, 0x0004
     27c:	0301                	addi	t1,t1,0
     27e:	0901                	addi	s2,s2,0
     280:	0004                	.insn	2, 0x0004
     282:	0301                	addi	t1,t1,0
     284:	0901                	addi	s2,s2,0
     286:	0004                	.insn	2, 0x0004
     288:	0301                	addi	t1,t1,0
     28a:	0901                	addi	s2,s2,0
     28c:	0004                	.insn	2, 0x0004
     28e:	0301                	addi	t1,t1,0
     290:	0901                	addi	s2,s2,0
     292:	0004                	.insn	2, 0x0004
     294:	0301                	addi	t1,t1,0
     296:	0901                	addi	s2,s2,0
     298:	0004                	.insn	2, 0x0004
     29a:	0301                	addi	t1,t1,0
     29c:	0901                	addi	s2,s2,0
     29e:	0004                	.insn	2, 0x0004
     2a0:	0301                	addi	t1,t1,0
     2a2:	0901                	addi	s2,s2,0
     2a4:	0004                	.insn	2, 0x0004
     2a6:	0301                	addi	t1,t1,0
     2a8:	0905                	addi	s2,s2,1
     2aa:	0004                	.insn	2, 0x0004
     2ac:	0301                	addi	t1,t1,0
     2ae:	0901                	addi	s2,s2,0
     2b0:	0008                	.insn	2, 0x0008
     2b2:	0301                	addi	t1,t1,0
     2b4:	0905                	addi	s2,s2,1
     2b6:	0004                	.insn	2, 0x0004
     2b8:	0301                	addi	t1,t1,0
     2ba:	00080903          	lb	s2,0(a6)
     2be:	0301                	addi	t1,t1,0
     2c0:	0901                	addi	s2,s2,0
     2c2:	0004                	.insn	2, 0x0004
     2c4:	0301                	addi	t1,t1,0
     2c6:	00040903          	lb	s2,0(s0)
     2ca:	0301                	addi	t1,t1,0
     2cc:	0902                	c.slli64	s2
     2ce:	0004                	.insn	2, 0x0004
     2d0:	0301                	addi	t1,t1,0
     2d2:	0901                	addi	s2,s2,0
     2d4:	0002                	c.slli64	zero
     2d6:	0301                	addi	t1,t1,0
     2d8:	0904                	addi	s1,sp,144
     2da:	0004                	.insn	2, 0x0004
     2dc:	0301                	addi	t1,t1,0
     2de:	0901                	addi	s2,s2,0
     2e0:	0004                	.insn	2, 0x0004
     2e2:	0301                	addi	t1,t1,0
     2e4:	0901                	addi	s2,s2,0
     2e6:	0002                	c.slli64	zero
     2e8:	0301                	addi	t1,t1,0
     2ea:	0901                	addi	s2,s2,0
     2ec:	0002                	c.slli64	zero
     2ee:	0301                	addi	t1,t1,0
     2f0:	0901                	addi	s2,s2,0
     2f2:	0004                	.insn	2, 0x0004
     2f4:	0301                	addi	t1,t1,0
     2f6:	0902                	c.slli64	s2
     2f8:	0002                	c.slli64	zero
     2fa:	0301                	addi	t1,t1,0
     2fc:	0904                	addi	s1,sp,144
     2fe:	0004                	.insn	2, 0x0004
     300:	0301                	addi	t1,t1,0
     302:	0902                	c.slli64	s2
     304:	0002                	c.slli64	zero
     306:	0301                	addi	t1,t1,0
     308:	0901                	addi	s2,s2,0
     30a:	0002                	c.slli64	zero
     30c:	0301                	addi	t1,t1,0
     30e:	0901                	addi	s2,s2,0
     310:	0002                	c.slli64	zero
     312:	0301                	addi	t1,t1,0
     314:	0901                	addi	s2,s2,0
     316:	0002                	c.slli64	zero
     318:	0301                	addi	t1,t1,0
     31a:	0901                	addi	s2,s2,0
     31c:	0002                	c.slli64	zero
     31e:	0301                	addi	t1,t1,0
     320:	0901                	addi	s2,s2,0
     322:	0002                	c.slli64	zero
     324:	0301                	addi	t1,t1,0
     326:	0901                	addi	s2,s2,0
     328:	0002                	c.slli64	zero
     32a:	0301                	addi	t1,t1,0
     32c:	0901                	addi	s2,s2,0
     32e:	0002                	c.slli64	zero
     330:	0301                	addi	t1,t1,0
     332:	0901                	addi	s2,s2,0
     334:	0002                	c.slli64	zero
     336:	0301                	addi	t1,t1,0
     338:	0901                	addi	s2,s2,0
     33a:	0002                	c.slli64	zero
     33c:	0301                	addi	t1,t1,0
     33e:	0901                	addi	s2,s2,0
     340:	0002                	c.slli64	zero
     342:	0301                	addi	t1,t1,0
     344:	0901                	addi	s2,s2,0
     346:	0002                	c.slli64	zero
     348:	0301                	addi	t1,t1,0
     34a:	0901                	addi	s2,s2,0
     34c:	0002                	c.slli64	zero
     34e:	0301                	addi	t1,t1,0
     350:	0901                	addi	s2,s2,0
     352:	0002                	c.slli64	zero
     354:	0301                	addi	t1,t1,0
     356:	0901                	addi	s2,s2,0
     358:	0002                	c.slli64	zero
     35a:	0301                	addi	t1,t1,0
     35c:	0901                	addi	s2,s2,0
     35e:	0002                	c.slli64	zero
     360:	0301                	addi	t1,t1,0
     362:	0901                	addi	s2,s2,0
     364:	0002                	c.slli64	zero
     366:	0301                	addi	t1,t1,0
     368:	0901                	addi	s2,s2,0
     36a:	0002                	c.slli64	zero
     36c:	0301                	addi	t1,t1,0
     36e:	0901                	addi	s2,s2,0
     370:	0002                	c.slli64	zero
     372:	0301                	addi	t1,t1,0
     374:	0901                	addi	s2,s2,0
     376:	0002                	c.slli64	zero
     378:	0301                	addi	t1,t1,0
     37a:	0901                	addi	s2,s2,0
     37c:	0002                	c.slli64	zero
     37e:	0301                	addi	t1,t1,0
     380:	0901                	addi	s2,s2,0
     382:	0002                	c.slli64	zero
     384:	0301                	addi	t1,t1,0
     386:	0901                	addi	s2,s2,0
     388:	0002                	c.slli64	zero
     38a:	0301                	addi	t1,t1,0
     38c:	0901                	addi	s2,s2,0
     38e:	0002                	c.slli64	zero
     390:	0301                	addi	t1,t1,0
     392:	0901                	addi	s2,s2,0
     394:	0002                	c.slli64	zero
     396:	0301                	addi	t1,t1,0
     398:	0901                	addi	s2,s2,0
     39a:	0002                	c.slli64	zero
     39c:	0301                	addi	t1,t1,0
     39e:	0901                	addi	s2,s2,0
     3a0:	0002                	c.slli64	zero
     3a2:	0301                	addi	t1,t1,0
     3a4:	0901                	addi	s2,s2,0
     3a6:	0002                	c.slli64	zero
     3a8:	0301                	addi	t1,t1,0
     3aa:	0901                	addi	s2,s2,0
     3ac:	0002                	c.slli64	zero
     3ae:	0301                	addi	t1,t1,0
     3b0:	0901                	addi	s2,s2,0
     3b2:	0002                	c.slli64	zero
     3b4:	0301                	addi	t1,t1,0
     3b6:	0901                	addi	s2,s2,0
     3b8:	0002                	c.slli64	zero
     3ba:	0301                	addi	t1,t1,0
     3bc:	0902                	c.slli64	s2
     3be:	0002                	c.slli64	zero
     3c0:	0301                	addi	t1,t1,0
     3c2:	0901                	addi	s2,s2,0
     3c4:	0004                	.insn	2, 0x0004
     3c6:	0301                	addi	t1,t1,0
     3c8:	0901                	addi	s2,s2,0
     3ca:	0004                	.insn	2, 0x0004
     3cc:	0301                	addi	t1,t1,0
     3ce:	0901                	addi	s2,s2,0
     3d0:	0002                	c.slli64	zero
     3d2:	0301                	addi	t1,t1,0
     3d4:	0901                	addi	s2,s2,0
     3d6:	0004                	.insn	2, 0x0004
     3d8:	0301                	addi	t1,t1,0
     3da:	00040903          	lb	s2,0(s0)
     3de:	0301                	addi	t1,t1,0
     3e0:	0901                	addi	s2,s2,0
     3e2:	0006                	c.slli	zero,0x1
     3e4:	0301                	addi	t1,t1,0
     3e6:	0902                	c.slli64	s2
     3e8:	0004                	.insn	2, 0x0004
     3ea:	0301                	addi	t1,t1,0
     3ec:	0901                	addi	s2,s2,0
     3ee:	0002                	c.slli64	zero
     3f0:	0301                	addi	t1,t1,0
     3f2:	0901                	addi	s2,s2,0
     3f4:	0002                	c.slli64	zero
     3f6:	0301                	addi	t1,t1,0
     3f8:	0901                	addi	s2,s2,0
     3fa:	0002                	c.slli64	zero
     3fc:	0301                	addi	t1,t1,0
     3fe:	0901                	addi	s2,s2,0
     400:	0002                	c.slli64	zero
     402:	0301                	addi	t1,t1,0
     404:	0901                	addi	s2,s2,0
     406:	0002                	c.slli64	zero
     408:	0301                	addi	t1,t1,0
     40a:	0901                	addi	s2,s2,0
     40c:	0002                	c.slli64	zero
     40e:	0301                	addi	t1,t1,0
     410:	0901                	addi	s2,s2,0
     412:	0002                	c.slli64	zero
     414:	0301                	addi	t1,t1,0
     416:	0901                	addi	s2,s2,0
     418:	0002                	c.slli64	zero
     41a:	0301                	addi	t1,t1,0
     41c:	0901                	addi	s2,s2,0
     41e:	0002                	c.slli64	zero
     420:	0301                	addi	t1,t1,0
     422:	0901                	addi	s2,s2,0
     424:	0002                	c.slli64	zero
     426:	0301                	addi	t1,t1,0
     428:	0901                	addi	s2,s2,0
     42a:	0002                	c.slli64	zero
     42c:	0301                	addi	t1,t1,0
     42e:	0901                	addi	s2,s2,0
     430:	0002                	c.slli64	zero
     432:	0301                	addi	t1,t1,0
     434:	0901                	addi	s2,s2,0
     436:	0002                	c.slli64	zero
     438:	0301                	addi	t1,t1,0
     43a:	0901                	addi	s2,s2,0
     43c:	0002                	c.slli64	zero
     43e:	0301                	addi	t1,t1,0
     440:	0901                	addi	s2,s2,0
     442:	0002                	c.slli64	zero
     444:	0301                	addi	t1,t1,0
     446:	0901                	addi	s2,s2,0
     448:	0002                	c.slli64	zero
     44a:	0301                	addi	t1,t1,0
     44c:	0901                	addi	s2,s2,0
     44e:	0002                	c.slli64	zero
     450:	0301                	addi	t1,t1,0
     452:	0901                	addi	s2,s2,0
     454:	0002                	c.slli64	zero
     456:	0301                	addi	t1,t1,0
     458:	0901                	addi	s2,s2,0
     45a:	0002                	c.slli64	zero
     45c:	0301                	addi	t1,t1,0
     45e:	0901                	addi	s2,s2,0
     460:	0002                	c.slli64	zero
     462:	0301                	addi	t1,t1,0
     464:	0901                	addi	s2,s2,0
     466:	0002                	c.slli64	zero
     468:	0301                	addi	t1,t1,0
     46a:	0901                	addi	s2,s2,0
     46c:	0002                	c.slli64	zero
     46e:	0301                	addi	t1,t1,0
     470:	0901                	addi	s2,s2,0
     472:	0002                	c.slli64	zero
     474:	0301                	addi	t1,t1,0
     476:	0901                	addi	s2,s2,0
     478:	0002                	c.slli64	zero
     47a:	0301                	addi	t1,t1,0
     47c:	0901                	addi	s2,s2,0
     47e:	0002                	c.slli64	zero
     480:	0301                	addi	t1,t1,0
     482:	0901                	addi	s2,s2,0
     484:	0002                	c.slli64	zero
     486:	0301                	addi	t1,t1,0
     488:	0901                	addi	s2,s2,0
     48a:	0002                	c.slli64	zero
     48c:	0301                	addi	t1,t1,0
     48e:	0901                	addi	s2,s2,0
     490:	0002                	c.slli64	zero
     492:	0301                	addi	t1,t1,0
     494:	0901                	addi	s2,s2,0
     496:	0002                	c.slli64	zero
     498:	0301                	addi	t1,t1,0
     49a:	0901                	addi	s2,s2,0
     49c:	0002                	c.slli64	zero
     49e:	0301                	addi	t1,t1,0
     4a0:	0902                	c.slli64	s2
     4a2:	0002                	c.slli64	zero
     4a4:	0301                	addi	t1,t1,0
     4a6:	0901                	addi	s2,s2,0
     4a8:	0002                	c.slli64	zero
     4aa:	0901                	addi	s2,s2,0
     4ac:	0004                	.insn	2, 0x0004
     4ae:	0100                	addi	s0,sp,128
     4b0:	8f01                	sub	a4,a4,s0
     4b2:	0014                	.insn	2, 0x0014
     4b4:	0200                	addi	s0,sp,256
     4b6:	3d00                	fld	fs0,56(a0)
     4b8:	0001                	nop
     4ba:	0100                	addi	s0,sp,128
     4bc:	fb01                	bnez	a4,3cc <_start-0x7ffffc34>
     4be:	0a0e                	slli	s4,s4,0x3
     4c0:	0100                	addi	s0,sp,128
     4c2:	0101                	addi	sp,sp,0
     4c4:	0001                	nop
     4c6:	0000                	unimp
     4c8:	2e01                	sext.w	t3,t3
     4ca:	2f2e                	fld	ft10,200(sp)
     4cc:	6d6d6f63          	bltu	s10,s6,baa <_start-0x7ffff456>
     4d0:	2f006e6f          	jal	t3,67c0 <_start-0x7fff9840>
     4d4:	2f74706f          	j	47fca <_start-0x7ffb8036>
     4d8:	6972                	ld	s2,280(sp)
     4da:	2f766373          	csrrsi	t1,0x2f7,12
     4de:	6972                	ld	s2,280(sp)
     4e0:	36766373          	csrrsi	t1,0x367,12
     4e4:	2d34                	fld	fa3,88(a0)
     4e6:	6e75                	lui	t3,0x1d
     4e8:	776f6e6b          	.insn	4, 0x776f6e6b
     4ec:	2d6e                	fld	fs10,216(sp)
     4ee:	6c65                	lui	s8,0x19
     4f0:	2f66                	fld	ft10,88(sp)
     4f2:	6e69                	lui	t3,0x1a
     4f4:	64756c63          	bltu	a0,t2,b4c <_start-0x7ffff4b4>
     4f8:	2f65                	addiw	t5,t5,25 # 1b019 <_start-0x7ffe4fe7>
     4fa:	616d                	addi	sp,sp,240
     4fc:	6e696863          	bltu	s2,t1,bec <_start-0x7ffff414>
     500:	0065                	c.nop	25
     502:	74706f2f          	.insn	4, 0x74706f2f
     506:	7369722f          	.insn	4, 0x7369722f
     50a:	722f7663          	bgeu	t5,sp,c36 <_start-0x7ffff3ca>
     50e:	7369                	lui	t1,0xffffa
     510:	34367663          	bgeu	a2,gp,85c <_start-0x7ffff7a4>
     514:	752d                	lui	a0,0xfffeb
     516:	6b6e                	ld	s6,216(sp)
     518:	6f6e                	ld	t5,216(sp)
     51a:	652d6e77          	.insn	4, 0x652d6e77
     51e:	666c                	ld	a1,200(a2)
     520:	636e692f          	.insn	4, 0x636e692f
     524:	756c                	ld	a1,232(a0)
     526:	6564                	ld	s1,200(a0)
     528:	7379732f          	.insn	4, 0x7379732f
     52c:	2f00                	fld	fs0,24(a4)
     52e:	2f74706f          	j	48024 <_start-0x7ffb7fdc>
     532:	6972                	ld	s2,280(sp)
     534:	2f766373          	csrrsi	t1,0x2f7,12
     538:	696c                	ld	a1,208(a0)
     53a:	2f62                	fld	ft10,24(sp)
     53c:	2f636367          	.insn	4, 0x2f636367
     540:	6972                	ld	s2,280(sp)
     542:	36766373          	csrrsi	t1,0x367,12
     546:	2d34                	fld	fa3,88(a0)
     548:	6e75                	lui	t3,0x1d
     54a:	776f6e6b          	.insn	4, 0x776f6e6b
     54e:	2d6e                	fld	fs10,216(sp)
     550:	6c65                	lui	s8,0x19
     552:	2f66                	fld	ft10,88(sp)
     554:	3431                	addiw	s0,s0,-20
     556:	322e                	fld	ft4,232(sp)
     558:	302e                	fld	ft0,232(sp)
     55a:	636e692f          	.insn	4, 0x636e692f
     55e:	756c                	ld	a1,232(a0)
     560:	6564                	ld	s1,200(a0)
     562:	2f00                	fld	fs0,24(a4)
     564:	2f74706f          	j	4805a <_start-0x7ffb7fa6>
     568:	6972                	ld	s2,280(sp)
     56a:	2f766373          	csrrsi	t1,0x2f7,12
     56e:	6972                	ld	s2,280(sp)
     570:	36766373          	csrrsi	t1,0x367,12
     574:	2d34                	fld	fa3,88(a0)
     576:	6e75                	lui	t3,0x1d
     578:	776f6e6b          	.insn	4, 0x776f6e6b
     57c:	2d6e                	fld	fs10,216(sp)
     57e:	6c65                	lui	s8,0x19
     580:	2f66                	fld	ft10,88(sp)
     582:	6e69                	lui	t3,0x1a
     584:	64756c63          	bltu	a0,t2,bdc <_start-0x7ffff424>
     588:	0065                	c.nop	25
     58a:	7300                	ld	s0,32(a4)
     58c:	7379                	lui	t1,0xffffe
     58e:	6c6c6163          	bltu	s8,t1,c50 <_start-0x7ffff3b0>
     592:	00632e73          	csrrs	t3,0x6,t1
     596:	0001                	nop
     598:	5f00                	lw	s0,56(a4)
     59a:	6564                	ld	s1,200(a0)
     59c:	6166                	ld	sp,88(sp)
     59e:	6c75                	lui	s8,0x1d
     5a0:	5f74                	lw	a3,124(a4)
     5a2:	7974                	ld	a3,240(a0)
     5a4:	6570                	ld	a2,200(a0)
     5a6:	00682e73          	csrrs	t3,0x6,a6
     5aa:	0002                	c.slli64	zero
     5ac:	5f00                	lw	s0,56(a4)
     5ae:	69647473          	csrrci	s0,0x696,8
     5b2:	746e                	ld	s0,248(sp)
     5b4:	682e                	ld	a6,200(sp)
     5b6:	0300                	addi	s0,sp,384
     5b8:	0000                	unimp
     5ba:	64647473          	csrrci	s0,hviprio1,8
     5be:	6665                	lui	a2,0x19
     5c0:	682e                	ld	a6,200(sp)
     5c2:	0400                	addi	s0,sp,512
     5c4:	0000                	unimp
     5c6:	61647473          	csrrci	s0,0x616,8
     5ca:	6772                	ld	a4,280(sp)
     5cc:	682e                	ld	a6,200(sp)
     5ce:	0400                	addi	s0,sp,512
     5d0:	0000                	unimp
     5d2:	69727473          	csrrci	s0,0x697,4
     5d6:	676e                	ld	a4,216(sp)
     5d8:	682e                	ld	a6,200(sp)
     5da:	0500                	addi	s0,sp,640
     5dc:	0000                	unimp
     5de:	69647473          	csrrci	s0,0x696,8
     5e2:	00682e6f          	jal	t3,825e8 <_start-0x7ff7da18>
     5e6:	0005                	c.nop	1
     5e8:	3c00                	fld	fs0,56(s0)
     5ea:	7562                	ld	a0,56(sp)
     5ec:	6c69                	lui	s8,0x1a
     5ee:	2d74                	fld	fa3,216(a0)
     5f0:	6e69                	lui	t3,0x1a
     5f2:	003e                	c.slli	zero,0xf
     5f4:	0000                	unimp
     5f6:	0000                	unimp
     5f8:	0305                	addi	t1,t1,1 # ffffffffffffe001 <__global_pointer$+0xffffffff7fffc7b9>
     5fa:	0900                	addi	s0,sp,144
     5fc:	0002                	c.slli64	zero
     5fe:	0002                	c.slli64	zero
     600:	0080                	addi	s0,sp,64
     602:	0000                	unimp
     604:	0300                	addi	s0,sp,384
     606:	03a5                	addi	t2,t2,9
     608:	0501                	addi	a0,a0,0 # fffffffffffeb000 <__global_pointer$+0xffffffff7ffe97b8>
     60a:	0305                	addi	t1,t1,1
     60c:	0901                	addi	s2,s2,0
     60e:	0000                	unimp
     610:	0301                	addi	t1,t1,0
     612:	0901                	addi	s2,s2,0
     614:	0000                	unimp
     616:	0501                	addi	a0,a0,0
     618:	0606                	slli	a2,a2,0x1
     61a:	00090003          	lb	zero,0(s2)
     61e:	0100                	addi	s0,sp,128
     620:	0c05                	addi	s8,s8,1 # 1a001 <_start-0x7ffe5fff>
     622:	02090003          	lb	zero,32(s2)
     626:	0100                	addi	s0,sp,128
     628:	0505                	addi	a0,a0,1
     62a:	0306                	slli	t1,t1,0x1
     62c:	0901                	addi	s2,s2,0
     62e:	0004                	.insn	2, 0x0004
     630:	0501                	addi	a0,a0,0
     632:	060c                	addi	a1,sp,768
     634:	00090003          	lb	zero,0(s2)
     638:	0100                	addi	s0,sp,128
     63a:	0305                	addi	t1,t1,1
     63c:	06090103          	lb	sp,96(s2)
     640:	0100                	addi	s0,sp,128
     642:	1505                	addi	a0,a0,-31
     644:	0306                	slli	t1,t1,0x1
     646:	02097cef          	jal	s9,97666 <_start-0x7ff6899a>
     64a:	0100                	addi	s0,sp,128
     64c:	0305                	addi	t1,t1,1
     64e:	00090103          	lb	sp,0(s2)
     652:	0100                	addi	s0,sp,128
     654:	0205                	addi	tp,tp,1 # 1 <_start-0x7fffffff>
     656:	00090103          	lb	sp,0(s2)
     65a:	0100                	addi	s0,sp,128
     65c:	0c05                	addi	s8,s8,1
     65e:	0306                	slli	t1,t1,0x1
     660:	0900                	addi	s0,sp,144
     662:	0000                	unimp
     664:	0501                	addi	a0,a0,0
     666:	0301                	addi	t1,t1,0
     668:	0901                	addi	s2,s2,0
     66a:	000a                	c.slli	zero,0x2
     66c:	0501                	addi	a0,a0,0
     66e:	02030617          	auipc	a2,0x2030
     672:	0209                	addi	tp,tp,2 # 2 <_start-0x7ffffffe>
     674:	0100                	addi	s0,sp,128
     676:	0305                	addi	t1,t1,1
     678:	00090103          	lb	sp,0(s2)
     67c:	0100                	addi	s0,sp,128
     67e:	00090103          	lb	sp,0(s2)
     682:	0100                	addi	s0,sp,128
     684:	0205                	addi	tp,tp,1 # 1 <_start-0x7fffffff>
     686:	00090203          	lb	tp,0(s2)
     68a:	0100                	addi	s0,sp,128
     68c:	0b05                	addi	s6,s6,1
     68e:	0200                	addi	s0,sp,256
     690:	0104                	addi	s1,sp,128
     692:	0306                	slli	t1,t1,0x1
     694:	0900                	addi	s0,sp,144
     696:	0000                	unimp
     698:	0501                	addi	a0,a0,0
     69a:	0009                	c.nop	2
     69c:	0402                	c.slli64	s0
     69e:	0601                	addi	a2,a2,0 # 203066e <_start-0x7dfcf992>
     6a0:	06090003          	lb	zero,96(s2)
     6a4:	0100                	addi	s0,sp,128
     6a6:	0b05                	addi	s6,s6,1
     6a8:	0200                	addi	s0,sp,256
     6aa:	0104                	addi	s1,sp,128
     6ac:	0306                	slli	t1,t1,0x1
     6ae:	0900                	addi	s0,sp,144
     6b0:	0000                	unimp
     6b2:	0501                	addi	a0,a0,0
     6b4:	0009                	c.nop	2
     6b6:	0402                	c.slli64	s0
     6b8:	0301                	addi	t1,t1,0
     6ba:	0900                	addi	s0,sp,144
     6bc:	0004                	.insn	2, 0x0004
     6be:	0501                	addi	a0,a0,0
     6c0:	0602                	c.slli64	a2
     6c2:	06090103          	lb	sp,96(s2)
     6c6:	0100                	addi	s0,sp,128
     6c8:	0c05                	addi	s8,s8,1
     6ca:	0306                	slli	t1,t1,0x1
     6cc:	0900                	addi	s0,sp,144
     6ce:	0000                	unimp
     6d0:	0501                	addi	a0,a0,0
     6d2:	0301                	addi	t1,t1,0
     6d4:	0901                	addi	s2,s2,0
     6d6:	0008                	.insn	2, 0x0008
     6d8:	0601                	addi	a2,a2,0
     6da:	09018e03          	lb	t3,144(gp) # 800018d8 <__global_pointer$+0x90>
     6de:	0002                	c.slli64	zero
     6e0:	0501                	addi	a0,a0,0
     6e2:	09030303          	lb	t1,144(t1)
     6e6:	0004                	.insn	2, 0x0004
     6e8:	0301                	addi	t1,t1,0
     6ea:	090e                	slli	s2,s2,0x3
     6ec:	0008                	.insn	2, 0x0008
     6ee:	0501                	addi	a0,a0,0
     6f0:	0601                	addi	a2,a2,0
     6f2:	00090103          	lb	sp,0(s2)
     6f6:	0100                	addi	s0,sp,128
     6f8:	1805                	addi	a6,a6,-31
     6fa:	0306                	slli	t1,t1,0x1
     6fc:	7ee2                	ld	t4,56(sp)
     6fe:	0809                	addi	a6,a6,2
     700:	0100                	addi	s0,sp,128
     702:	0305                	addi	t1,t1,1
     704:	00090103          	lb	sp,0(s2)
     708:	0100                	addi	s0,sp,128
     70a:	00090103          	lb	sp,0(s2)
     70e:	0100                	addi	s0,sp,128
     710:	0205                	addi	tp,tp,1 # 1 <_start-0x7fffffff>
     712:	00090203          	lb	tp,0(s2)
     716:	0100                	addi	s0,sp,128
     718:	0b05                	addi	s6,s6,1
     71a:	0200                	addi	s0,sp,256
     71c:	0104                	addi	s1,sp,128
     71e:	0306                	slli	t1,t1,0x1
     720:	0900                	addi	s0,sp,144
     722:	0000                	unimp
     724:	0501                	addi	a0,a0,0
     726:	0009                	c.nop	2
     728:	0402                	c.slli64	s0
     72a:	0601                	addi	a2,a2,0
     72c:	06090003          	lb	zero,96(s2)
     730:	0100                	addi	s0,sp,128
     732:	0b05                	addi	s6,s6,1
     734:	0200                	addi	s0,sp,256
     736:	0104                	addi	s1,sp,128
     738:	0306                	slli	t1,t1,0x1
     73a:	0900                	addi	s0,sp,144
     73c:	0000                	unimp
     73e:	0501                	addi	a0,a0,0
     740:	0009                	c.nop	2
     742:	0402                	c.slli64	s0
     744:	0301                	addi	t1,t1,0
     746:	0900                	addi	s0,sp,144
     748:	0004                	.insn	2, 0x0004
     74a:	0501                	addi	a0,a0,0
     74c:	0602                	c.slli64	a2
     74e:	04090103          	lb	sp,64(s2)
     752:	0100                	addi	s0,sp,128
     754:	0905                	addi	s2,s2,1
     756:	0306                	slli	t1,t1,0x1
     758:	0900                	addi	s0,sp,144
     75a:	0000                	unimp
     75c:	0501                	addi	a0,a0,0
     75e:	0301                	addi	t1,t1,0
     760:	0901                	addi	s2,s2,0
     762:	0008                	.insn	2, 0x0008
     764:	0501                	addi	a0,a0,0
     766:	0622                	slli	a2,a2,0x8
     768:	02090203          	lb	tp,32(s2)
     76c:	0100                	addi	s0,sp,128
     76e:	0505                	addi	a0,a0,1
     770:	08090103          	lb	sp,128(s2)
     774:	0100                	addi	s0,sp,128
     776:	0c05                	addi	s8,s8,1
     778:	00090003          	lb	zero,0(s2)
     77c:	0100                	addi	s0,sp,128
     77e:	0905                	addi	s2,s2,1
     780:	06090103          	lb	sp,96(s2)
     784:	0100                	addi	s0,sp,128
     786:	1605                	addi	a2,a2,-31
     788:	0306                	slli	t1,t1,0x1
     78a:	0900                	addi	s0,sp,144
     78c:	0000                	unimp
     78e:	0501                	addi	a0,a0,0
     790:	0309                	addi	t1,t1,2
     792:	0900                	addi	s0,sp,144
     794:	0002                	c.slli64	zero
     796:	0501                	addi	a0,a0,0
     798:	060c                	addi	a1,sp,768
     79a:	04097f03          	.insn	4, 0x04097f03
     79e:	0100                	addi	s0,sp,128
     7a0:	0105                	addi	sp,sp,1
     7a2:	0306                	slli	t1,t1,0x1
     7a4:	00060903          	lb	s2,0(a2)
     7a8:	0601                	addi	a2,a2,0
     7aa:	08091d03          	lh	s10,128(s2)
     7ae:	0100                	addi	s0,sp,128
     7b0:	0305                	addi	t1,t1,1
     7b2:	00090103          	lb	sp,0(s2)
     7b6:	0100                	addi	s0,sp,128
     7b8:	00090803          	lb	a6,0(s2)
     7bc:	0100                	addi	s0,sp,128
     7be:	00090003          	lb	zero,0(s2)
     7c2:	0100                	addi	s0,sp,128
     7c4:	0200                	addi	s0,sp,256
     7c6:	0104                	addi	s1,sp,128
     7c8:	00090003          	lb	zero,0(s2)
     7cc:	0100                	addi	s0,sp,128
     7ce:	0200                	addi	s0,sp,256
     7d0:	0204                	addi	s1,sp,256
     7d2:	00090003          	lb	zero,0(s2)
     7d6:	0100                	addi	s0,sp,128
     7d8:	0200                	addi	s0,sp,256
     7da:	0204                	addi	s1,sp,256
     7dc:	00090003          	lb	zero,0(s2)
     7e0:	0100                	addi	s0,sp,128
     7e2:	0200                	addi	s0,sp,256
     7e4:	0204                	addi	s1,sp,256
     7e6:	00090003          	lb	zero,0(s2)
     7ea:	0100                	addi	s0,sp,128
     7ec:	04090003          	lb	zero,64(s2)
     7f0:	0100                	addi	s0,sp,128
     7f2:	00090003          	lb	zero,0(s2)
     7f6:	0100                	addi	s0,sp,128
     7f8:	0200                	addi	s0,sp,256
     7fa:	0204                	addi	s1,sp,256
     7fc:	0306                	slli	t1,t1,0x1
     7fe:	0900                	addi	s0,sp,144
     800:	0000                	unimp
     802:	0001                	nop
     804:	0402                	c.slli64	s0
     806:	00030603          	lb	a2,0(t1)
     80a:	0209                	addi	tp,tp,2 # 2 <_start-0x7ffffffe>
     80c:	0100                	addi	s0,sp,128
     80e:	0c090003          	lb	zero,192(s2)
     812:	0100                	addi	s0,sp,128
     814:	0200                	addi	s0,sp,256
     816:	0304                	addi	s1,sp,384
     818:	0306                	slli	t1,t1,0x1
     81a:	0900                	addi	s0,sp,144
     81c:	0000                	unimp
     81e:	0001                	nop
     820:	0402                	c.slli64	s0
     822:	0605                	addi	a2,a2,1
     824:	0a090003          	lb	zero,160(s2)
     828:	0100                	addi	s0,sp,128
     82a:	08090003          	lb	zero,128(s2)
     82e:	0100                	addi	s0,sp,128
     830:	00090103          	lb	sp,0(s2)
     834:	0100                	addi	s0,sp,128
     836:	00090003          	lb	zero,0(s2)
     83a:	0100                	addi	s0,sp,128
     83c:	0200                	addi	s0,sp,256
     83e:	0104                	addi	s1,sp,128
     840:	00090003          	lb	zero,0(s2)
     844:	0100                	addi	s0,sp,128
     846:	0200                	addi	s0,sp,256
     848:	0204                	addi	s1,sp,256
     84a:	00090003          	lb	zero,0(s2)
     84e:	0100                	addi	s0,sp,128
     850:	0200                	addi	s0,sp,256
     852:	0204                	addi	s1,sp,256
     854:	00090003          	lb	zero,0(s2)
     858:	0100                	addi	s0,sp,128
     85a:	0200                	addi	s0,sp,256
     85c:	0204                	addi	s1,sp,256
     85e:	00090003          	lb	zero,0(s2)
     862:	0100                	addi	s0,sp,128
     864:	04090003          	lb	zero,64(s2)
     868:	0100                	addi	s0,sp,128
     86a:	00090003          	lb	zero,0(s2)
     86e:	0100                	addi	s0,sp,128
     870:	0200                	addi	s0,sp,256
     872:	0204                	addi	s1,sp,256
     874:	0306                	slli	t1,t1,0x1
     876:	0900                	addi	s0,sp,144
     878:	0000                	unimp
     87a:	0001                	nop
     87c:	0402                	c.slli64	s0
     87e:	00030603          	lb	a2,0(t1)
     882:	0209                	addi	tp,tp,2 # 2 <_start-0x7ffffffe>
     884:	0100                	addi	s0,sp,128
     886:	0c090003          	lb	zero,192(s2)
     88a:	0100                	addi	s0,sp,128
     88c:	0200                	addi	s0,sp,256
     88e:	0304                	addi	s1,sp,384
     890:	0306                	slli	t1,t1,0x1
     892:	0900                	addi	s0,sp,144
     894:	0000                	unimp
     896:	0001                	nop
     898:	0402                	c.slli64	s0
     89a:	0605                	addi	a2,a2,1
     89c:	0a090003          	lb	zero,160(s2)
     8a0:	0100                	addi	s0,sp,128
     8a2:	04090003          	lb	zero,64(s2)
     8a6:	0100                	addi	s0,sp,128
     8a8:	0105                	addi	sp,sp,1
     8aa:	0306                	slli	t1,t1,0x1
     8ac:	00000903          	lb	s2,0(zero) # 0 <_start-0x80000000>
     8b0:	0601                	addi	a2,a2,0
     8b2:	02090303          	lb	t1,32(s2)
     8b6:	0100                	addi	s0,sp,128
     8b8:	0305                	addi	t1,t1,1
     8ba:	00090103          	lb	sp,0(s2)
     8be:	0100                	addi	s0,sp,128
     8c0:	1205                	addi	tp,tp,-31 # ffffffffffffffe1 <__global_pointer$+0xffffffff7fffe799>
     8c2:	0306                	slli	t1,t1,0x1
     8c4:	0900                	addi	s0,sp,144
     8c6:	0000                	unimp
     8c8:	0501                	addi	a0,a0,0
     8ca:	0318                	addi	a4,sp,384
     8cc:	0900                	addi	s0,sp,144
     8ce:	0004                	.insn	2, 0x0004
     8d0:	0501                	addi	a0,a0,0
     8d2:	030a                	slli	t1,t1,0x2
     8d4:	0900                	addi	s0,sp,144
     8d6:	0004                	.insn	2, 0x0004
     8d8:	0501                	addi	a0,a0,0
     8da:	01030603          	lb	a2,16(t1)
     8de:	0809                	addi	a6,a6,2
     8e0:	0100                	addi	s0,sp,128
     8e2:	0905                	addi	s2,s2,1
     8e4:	00090003          	lb	zero,0(s2)
     8e8:	0100                	addi	s0,sp,128
     8ea:	0105                	addi	sp,sp,1
     8ec:	02090403          	lb	s0,32(s2)
     8f0:	0100                	addi	s0,sp,128
     8f2:	0305                	addi	t1,t1,1
     8f4:	04090103          	lb	sp,64(s2)
     8f8:	0100                	addi	s0,sp,128
     8fa:	0105                	addi	sp,sp,1
     8fc:	08090403          	lb	s0,128(s2)
     900:	0100                	addi	s0,sp,128
     902:	0305                	addi	t1,t1,1
     904:	04090103          	lb	sp,64(s2)
     908:	0100                	addi	s0,sp,128
     90a:	0105                	addi	sp,sp,1
     90c:	04090403          	lb	s0,64(s2)
     910:	0100                	addi	s0,sp,128
     912:	0305                	addi	t1,t1,1
     914:	04090103          	lb	sp,64(s2)
     918:	0100                	addi	s0,sp,128
     91a:	00097b03          	.insn	4, 0x00097b03
     91e:	0100                	addi	s0,sp,128
     920:	0105                	addi	sp,sp,1
     922:	08090903          	lb	s2,128(s2)
     926:	0100                	addi	s0,sp,128
     928:	0305                	addi	t1,t1,1
     92a:	04090403          	lb	s0,64(s2)
     92e:	0100                	addi	s0,sp,128
     930:	0105                	addi	sp,sp,1
     932:	0306                	slli	t1,t1,0x1
     934:	0901                	addi	s2,s2,0
     936:	0004                	.insn	2, 0x0004
     938:	0601                	addi	a2,a2,0
     93a:	06090603          	lb	a2,96(s2)
     93e:	0100                	addi	s0,sp,128
     940:	0305                	addi	t1,t1,1
     942:	04090103          	lb	sp,64(s2)
     946:	0100                	addi	s0,sp,128
     948:	00097803          	.insn	4, 0x00097803
     94c:	0100                	addi	s0,sp,128
     94e:	04090903          	lb	s2,64(s2)
     952:	0100                	addi	s0,sp,128
     954:	0105                	addi	sp,sp,1
     956:	0306                	slli	t1,t1,0x1
     958:	0901                	addi	s2,s2,0
     95a:	0000                	unimp
     95c:	0601                	addi	a2,a2,0
     95e:	08090303          	lb	t1,128(s2)
     962:	0100                	addi	s0,sp,128
     964:	0305                	addi	t1,t1,1
     966:	00090303          	lb	t1,0(s2)
     96a:	0100                	addi	s0,sp,128
     96c:	0e05                	addi	t3,t3,1 # 1a001 <_start-0x7ffe5fff>
     96e:	0200                	addi	s0,sp,256
     970:	0104                	addi	s1,sp,128
     972:	00090003          	lb	zero,0(s2)
     976:	0100                	addi	s0,sp,128
     978:	0105                	addi	sp,sp,1
     97a:	0306                	slli	t1,t1,0x1
     97c:	0901                	addi	s2,s2,0
     97e:	0002                	c.slli64	zero
     980:	0501                	addi	a0,a0,0
     982:	000e                	c.slli	zero,0x3
     984:	0402                	c.slli64	s0
     986:	0601                	addi	a2,a2,0
     988:	02097f03          	.insn	4, 0x02097f03
     98c:	0100                	addi	s0,sp,128
     98e:	0105                	addi	sp,sp,1
     990:	02090403          	lb	s0,32(s2)
     994:	0100                	addi	s0,sp,128
     996:	0305                	addi	t1,t1,1
     998:	04090203          	lb	tp,64(s2)
     99c:	0100                	addi	s0,sp,128
     99e:	00096a03          	lwu	s4,0(s2)
     9a2:	0100                	addi	s0,sp,128
     9a4:	0c091703          	lh	a4,192(s2)
     9a8:	0100                	addi	s0,sp,128
     9aa:	0105                	addi	sp,sp,1
     9ac:	0306                	slli	t1,t1,0x1
     9ae:	0901                	addi	s2,s2,0
     9b0:	0000                	unimp
     9b2:	0601                	addi	a2,a2,0
     9b4:	08093703          	ld	a4,128(s2)
     9b8:	0100                	addi	s0,sp,128
     9ba:	0305                	addi	t1,t1,1
     9bc:	04090103          	lb	sp,64(s2)
     9c0:	0100                	addi	s0,sp,128
     9c2:	00090103          	lb	sp,0(s2)
     9c6:	0100                	addi	s0,sp,128
     9c8:	00090103          	lb	sp,0(s2)
     9cc:	0100                	addi	s0,sp,128
     9ce:	1105                	addi	sp,sp,-31
     9d0:	0200                	addi	s0,sp,256
     9d2:	0104                	addi	s1,sp,128
     9d4:	00090003          	lb	zero,0(s2)
     9d8:	0100                	addi	s0,sp,128
     9da:	1b05                	addi	s6,s6,-31
     9dc:	0306                	slli	t1,t1,0x1
     9de:	0902                	c.slli64	s2
     9e0:	0008                	.insn	2, 0x0008
     9e2:	0001                	nop
     9e4:	0402                	c.slli64	s0
     9e6:	0302                	c.slli64	t1
     9e8:	0900                	addi	s0,sp,144
     9ea:	0002                	c.slli64	zero
     9ec:	0001                	nop
     9ee:	0402                	c.slli64	s0
     9f0:	0301                	addi	t1,t1,0
     9f2:	0900                	addi	s0,sp,144
     9f4:	0004                	.insn	2, 0x0004
     9f6:	0001                	nop
     9f8:	0402                	c.slli64	s0
     9fa:	0304                	addi	s1,sp,384
     9fc:	0900                	addi	s0,sp,144
     9fe:	0006                	c.slli	zero,0x1
     a00:	0501                	addi	a0,a0,0
     a02:	0402000f          	.insn	4, 0x0402000f
     a06:	0304                	addi	s1,sp,384
     a08:	0900                	addi	s0,sp,144
     a0a:	0002                	c.slli64	zero
     a0c:	0501                	addi	a0,a0,0
     a0e:	0605                	addi	a2,a2,1
     a10:	04090103          	lb	sp,64(s2)
     a14:	0100                	addi	s0,sp,128
     a16:	0705                	addi	a4,a4,1
     a18:	0306                	slli	t1,t1,0x1
     a1a:	0900                	addi	s0,sp,144
     a1c:	0000                	unimp
     a1e:	0501                	addi	a0,a0,0
     a20:	0018                	.insn	2, 0x0018
     a22:	0402                	c.slli64	s0
     a24:	0602                	c.slli64	a2
     a26:	02097d03          	.insn	4, 0x02097d03
     a2a:	0100                	addi	s0,sp,128
     a2c:	1105                	addi	sp,sp,-31
     a2e:	0200                	addi	s0,sp,256
     a30:	0104                	addi	s1,sp,128
     a32:	00090003          	lb	zero,0(s2)
     a36:	0100                	addi	s0,sp,128
     a38:	0505                	addi	a0,a0,1
     a3a:	0a090203          	lb	tp,160(s2)
     a3e:	0100                	addi	s0,sp,128
     a40:	1405                	addi	s0,s0,-31
     a42:	0306                	slli	t1,t1,0x1
     a44:	0900                	addi	s0,sp,144
     a46:	0000                	unimp
     a48:	0501                	addi	a0,a0,0
     a4a:	0402001b          	addiw	zero,tp,64 # 40 <_start-0x7fffffc0>
     a4e:	0302                	c.slli64	t1
     a50:	0900                	addi	s0,sp,144
     a52:	0004                	.insn	2, 0x0004
     a54:	0301                	addi	t1,t1,0
     a56:	0900                	addi	s0,sp,144
     a58:	0002                	c.slli64	zero
     a5a:	0001                	nop
     a5c:	0402                	c.slli64	s0
     a5e:	0301                	addi	t1,t1,0
     a60:	0900                	addi	s0,sp,144
     a62:	0004                	.insn	2, 0x0004
     a64:	0501                	addi	a0,a0,0
     a66:	03030603          	lb	a2,48(t1)
     a6a:	0409                	addi	s0,s0,2
     a6c:	0100                	addi	s0,sp,128
     a6e:	0b05                	addi	s6,s6,1
     a70:	0306                	slli	t1,t1,0x1
     a72:	0900                	addi	s0,sp,144
     a74:	0000                	unimp
     a76:	0501                	addi	a0,a0,0
     a78:	02030603          	lb	a2,32(t1)
     a7c:	0409                	addi	s0,s0,2
     a7e:	0100                	addi	s0,sp,128
     a80:	097fa703          	lw	a4,151(t6)
     a84:	0000                	unimp
     a86:	0501                	addi	a0,a0,0
     a88:	0601                	addi	a2,a2,0
     a8a:	0900da03          	lhu	s4,144(ra)
     a8e:	0006                	c.slli	zero,0x1
     a90:	0601                	addi	a2,a2,0
     a92:	0901e203          	lwu	tp,144(gp) # 800018d8 <__global_pointer$+0x90>
     a96:	0006                	c.slli	zero,0x1
     a98:	0501                	addi	a0,a0,0
     a9a:	09010303          	lb	t1,144(sp)
     a9e:	0000                	unimp
     aa0:	0501                	addi	a0,a0,0
     aa2:	062a                	slli	a2,a2,0xa
     aa4:	00090003          	lb	zero,0(s2)
     aa8:	0100                	addi	s0,sp,128
     aaa:	3105                	addiw	sp,sp,-31
     aac:	06090003          	lb	zero,96(s2)
     ab0:	0100                	addi	s0,sp,128
     ab2:	0605                	addi	a2,a2,1
     ab4:	02090003          	lb	zero,32(s2)
     ab8:	0100                	addi	s0,sp,128
     aba:	0e05                	addi	t3,t3,1
     abc:	0306                	slli	t1,t1,0x1
     abe:	0908                	addi	a0,sp,144
     ac0:	0002                	c.slli64	zero
     ac2:	0501                	addi	a0,a0,0
     ac4:	061d                	addi	a2,a2,7
     ac6:	00090003          	lb	zero,0(s2)
     aca:	0100                	addi	s0,sp,128
     acc:	0b05                	addi	s6,s6,1
     ace:	06097f03          	.insn	4, 0x06097f03
     ad2:	0100                	addi	s0,sp,128
     ad4:	0e05                	addi	t3,t3,1
     ad6:	02090103          	lb	sp,32(s2)
     ada:	0100                	addi	s0,sp,128
     adc:	0705                	addi	a4,a4,1
     ade:	0306                	slli	t1,t1,0x1
     ae0:	0901                	addi	s2,s2,0
     ae2:	0004                	.insn	2, 0x0004
     ae4:	0501                	addi	a0,a0,0
     ae6:	0610                	addi	a2,sp,768
     ae8:	00090003          	lb	zero,0(s2)
     aec:	0100                	addi	s0,sp,128
     aee:	0905                	addi	s2,s2,1
     af0:	02090003          	lb	zero,32(s2)
     af4:	0100                	addi	s0,sp,128
     af6:	0e05                	addi	t3,t3,1
     af8:	02090003          	lb	zero,32(s2)
     afc:	0100                	addi	s0,sp,128
     afe:	0c05                	addi	s8,s8,1
     b00:	04090003          	lb	zero,64(s2)
     b04:	0100                	addi	s0,sp,128
     b06:	0e05                	addi	t3,t3,1
     b08:	0306                	slli	t1,t1,0x1
     b0a:	097f 0004 0501 0303 	.insn	10, 0x0903030305010004097f
     b12:	0903 
     b14:	0004                	.insn	2, 0x0004
     b16:	0501                	addi	a0,a0,0
     b18:	0601                	addi	a2,a2,0
     b1a:	00090103          	lb	sp,0(s2)
     b1e:	0100                	addi	s0,sp,128
     b20:	0e05                	addi	t3,t3,1
     b22:	0306                	slli	t1,t1,0x1
     b24:	00040977          	.insn	4, 0x00040977
     b28:	0501                	addi	a0,a0,0
     b2a:	0622                	slli	a2,a2,0x8
     b2c:	00090003          	lb	zero,0(s2)
     b30:	0100                	addi	s0,sp,128
     b32:	0e05                	addi	t3,t3,1
     b34:	02090003          	lb	zero,32(s2)
     b38:	0100                	addi	s0,sp,128
     b3a:	1005                	c.nop	-31
     b3c:	04097f03          	.insn	4, 0x04097f03
     b40:	0100                	addi	s0,sp,128
     b42:	0705                	addi	a4,a4,1
     b44:	0306                	slli	t1,t1,0x1
     b46:	0902                	c.slli64	s2
     b48:	0002                	c.slli64	zero
     b4a:	0501                	addi	a0,a0,0
     b4c:	0610                	addi	a2,sp,768
     b4e:	00090003          	lb	zero,0(s2)
     b52:	0100                	addi	s0,sp,128
     b54:	0905                	addi	s2,s2,1
     b56:	02090003          	lb	zero,32(s2)
     b5a:	0100                	addi	s0,sp,128
     b5c:	0e05                	addi	t3,t3,1
     b5e:	02090003          	lb	zero,32(s2)
     b62:	0100                	addi	s0,sp,128
     b64:	0c05                	addi	s8,s8,1
     b66:	04090003          	lb	zero,64(s2)
     b6a:	0100                	addi	s0,sp,128
     b6c:	0e05                	addi	t3,t3,1
     b6e:	0306                	slli	t1,t1,0x1
     b70:	097f 0004 0501 0301 	.insn	10, 0x090c030105010004097f
     b78:	090c 
     b7a:	0006                	c.slli	zero,0x1
     b7c:	0501                	addi	a0,a0,0
     b7e:	09010303          	lb	t1,144(sp)
     b82:	0000                	unimp
     b84:	0501                	addi	a0,a0,0
     b86:	0619                	addi	a2,a2,6
     b88:	00090003          	lb	zero,0(s2)
     b8c:	0100                	addi	s0,sp,128
     b8e:	2005                	.insn	2, 0x2005
     b90:	04090003          	lb	zero,64(s2)
     b94:	0100                	addi	s0,sp,128
     b96:	0605                	addi	a2,a2,1
     b98:	02090003          	lb	zero,32(s2)
     b9c:	0100                	addi	s0,sp,128
     b9e:	0e05                	addi	t3,t3,1
     ba0:	0306                	slli	t1,t1,0x1
     ba2:	0002090b          	.insn	4, 0x0002090b
     ba6:	0501                	addi	a0,a0,0
     ba8:	061d                	addi	a2,a2,7
     baa:	00090003          	lb	zero,0(s2)
     bae:	0100                	addi	s0,sp,128
     bb0:	0b05                	addi	s6,s6,1
     bb2:	02097f03          	.insn	4, 0x02097f03
     bb6:	0100                	addi	s0,sp,128
     bb8:	0e05                	addi	t3,t3,1
     bba:	02090103          	lb	sp,32(s2)
     bbe:	0100                	addi	s0,sp,128
     bc0:	0705                	addi	a4,a4,1
     bc2:	0306                	slli	t1,t1,0x1
     bc4:	0901                	addi	s2,s2,0
     bc6:	0004                	.insn	2, 0x0004
     bc8:	0501                	addi	a0,a0,0
     bca:	0609                	addi	a2,a2,2
     bcc:	00090003          	lb	zero,0(s2)
     bd0:	0100                	addi	s0,sp,128
     bd2:	0c05                	addi	s8,s8,1
     bd4:	02090003          	lb	zero,32(s2)
     bd8:	0100                	addi	s0,sp,128
     bda:	0e05                	addi	t3,t3,1
     bdc:	0306                	slli	t1,t1,0x1
     bde:	097f 0004 0501 0303 	.insn	10, 0x0903030305010004097f
     be6:	0903 
     be8:	0004                	.insn	2, 0x0004
     bea:	0501                	addi	a0,a0,0
     bec:	0601                	addi	a2,a2,0
     bee:	00090103          	lb	sp,0(s2)
     bf2:	0100                	addi	s0,sp,128
     bf4:	0505                	addi	a0,a0,1
     bf6:	0306                	slli	t1,t1,0x1
     bf8:	0972                	slli	s2,s2,0x1c
     bfa:	0004                	.insn	2, 0x0004
     bfc:	0301                	addi	t1,t1,0
     bfe:	0901                	addi	s2,s2,0
     c00:	0000                	unimp
     c02:	0301                	addi	t1,t1,0
     c04:	0901                	addi	s2,s2,0
     c06:	0000                	unimp
     c08:	0301                	addi	t1,t1,0
     c0a:	0901                	addi	s2,s2,0
     c0c:	0000                	unimp
     c0e:	0501                	addi	a0,a0,0
     c10:	7d03060f          	.insn	4, 0x7d03060f
     c14:	0009                	c.nop	2
     c16:	0100                	addi	s0,sp,128
     c18:	0505                	addi	a0,a0,1
     c1a:	0306                	slli	t1,t1,0x1
     c1c:	0905                	addi	s2,s2,1
     c1e:	0016                	c.slli	zero,0x5
     c20:	0301                	addi	t1,t1,0
     c22:	0901                	addi	s2,s2,0
     c24:	0000                	unimp
     c26:	0501                	addi	a0,a0,0
     c28:	030e                	slli	t1,t1,0x3
     c2a:	0900                	addi	s0,sp,144
     c2c:	0000                	unimp
     c2e:	0501                	addi	a0,a0,0
     c30:	0622                	slli	a2,a2,0x8
     c32:	00090003          	lb	zero,0(s2)
     c36:	0100                	addi	s0,sp,128
     c38:	0e05                	addi	t3,t3,1
     c3a:	02090003          	lb	zero,32(s2)
     c3e:	0100                	addi	s0,sp,128
     c40:	1005                	c.nop	-31
     c42:	04097f03          	.insn	4, 0x04097f03
     c46:	0100                	addi	s0,sp,128
     c48:	0705                	addi	a4,a4,1
     c4a:	0306                	slli	t1,t1,0x1
     c4c:	0902                	c.slli64	s2
     c4e:	0002                	c.slli64	zero
     c50:	0501                	addi	a0,a0,0
     c52:	0609                	addi	a2,a2,2
     c54:	00090003          	lb	zero,0(s2)
     c58:	0100                	addi	s0,sp,128
     c5a:	0c05                	addi	s8,s8,1
     c5c:	02090003          	lb	zero,32(s2)
     c60:	0100                	addi	s0,sp,128
     c62:	0e05                	addi	t3,t3,1
     c64:	0306                	slli	t1,t1,0x1
     c66:	097f 0004 0501 0301 	.insn	10, 0x090b030105010004097f
     c6e:	090b 
     c70:	0006                	c.slli	zero,0x1
     c72:	0501                	addi	a0,a0,0
     c74:	09010303          	lb	t1,144(sp)
     c78:	0000                	unimp
     c7a:	0301                	addi	t1,t1,0
     c7c:	0901                	addi	s2,s2,0
     c7e:	0000                	unimp
     c80:	0501                	addi	a0,a0,0
     c82:	030a                	slli	t1,t1,0x2
     c84:	0900                	addi	s0,sp,144
     c86:	0000                	unimp
     c88:	0501                	addi	a0,a0,0
     c8a:	7f03060f          	.insn	4, 0x7f03060f
     c8e:	0609                	addi	a2,a2,2
     c90:	0100                	addi	s0,sp,128
     c92:	0505                	addi	a0,a0,1
     c94:	0306                	slli	t1,t1,0x1
     c96:	0902                	c.slli64	s2
     c98:	0002                	c.slli64	zero
     c9a:	0501                	addi	a0,a0,0
     c9c:	0606                	slli	a2,a2,0x1
     c9e:	00090003          	lb	zero,0(s2)
     ca2:	0100                	addi	s0,sp,128
     ca4:	0a05                	addi	s4,s4,1
     ca6:	0306                	slli	t1,t1,0x1
     ca8:	097f 0002 0501 0303 	.insn	10, 0x0902030305010002097f
     cb0:	0902 
     cb2:	0006                	c.slli	zero,0x1
     cb4:	0501                	addi	a0,a0,0
     cb6:	0601                	addi	a2,a2,0
     cb8:	00090103          	lb	sp,0(s2)
     cbc:	0100                	addi	s0,sp,128
     cbe:	0f05                	addi	t5,t5,1
     cc0:	06097c03          	.insn	4, 0x06097c03
     cc4:	0100                	addi	s0,sp,128
     cc6:	0105                	addi	sp,sp,1
     cc8:	0306                	slli	t1,t1,0x1
     cca:	00040907          	.insn	4, 0x00040907
     cce:	0501                	addi	a0,a0,0
     cd0:	09010303          	lb	t1,144(sp)
     cd4:	0000                	unimp
     cd6:	0301                	addi	t1,t1,0
     cd8:	0901                	addi	s2,s2,0
     cda:	0000                	unimp
     cdc:	0501                	addi	a0,a0,0
     cde:	030e                	slli	t1,t1,0x3
     ce0:	0900                	addi	s0,sp,144
     ce2:	0000                	unimp
     ce4:	0501                	addi	a0,a0,0
     ce6:	7f03060f          	.insn	4, 0x7f03060f
     cea:	0409                	addi	s0,s0,2
     cec:	0100                	addi	s0,sp,128
     cee:	0e05                	addi	t3,t3,1
     cf0:	0200                	addi	s0,sp,256
     cf2:	0104                	addi	s1,sp,128
     cf4:	02090103          	lb	sp,32(s2)
     cf8:	0100                	addi	s0,sp,128
     cfa:	0505                	addi	a0,a0,1
     cfc:	0306                	slli	t1,t1,0x1
     cfe:	0901                	addi	s2,s2,0
     d00:	0006                	c.slli	zero,0x1
     d02:	0501                	addi	a0,a0,0
     d04:	0606                	slli	a2,a2,0x1
     d06:	00090003          	lb	zero,0(s2)
     d0a:	0100                	addi	s0,sp,128
     d0c:	0e05                	addi	t3,t3,1
     d0e:	0306                	slli	t1,t1,0x1
     d10:	097f 0002 0501 0303 	.insn	10, 0x0902030305010002097f
     d18:	0902 
     d1a:	0006                	c.slli	zero,0x1
     d1c:	0501                	addi	a0,a0,0
     d1e:	0601                	addi	a2,a2,0
     d20:	00090103          	lb	sp,0(s2)
     d24:	0100                	addi	s0,sp,128
     d26:	0f05                	addi	t5,t5,1
     d28:	06097c03          	.insn	4, 0x06097c03
     d2c:	0100                	addi	s0,sp,128
     d2e:	0105                	addi	sp,sp,1
     d30:	0306                	slli	t1,t1,0x1
     d32:	7e9e                	ld	t4,480(sp)
     d34:	0409                	addi	s0,s0,2
     d36:	0100                	addi	s0,sp,128
     d38:	2a05                	addiw	s4,s4,1
     d3a:	0306                	slli	t1,t1,0x1
     d3c:	0909                	addi	s2,s2,2
     d3e:	0022                	c.slli	zero,0x8
     d40:	0501                	addi	a0,a0,0
     d42:	090c030f          	.insn	4, 0x090c030f
     d46:	0004                	.insn	2, 0x0004
     d48:	0501                	addi	a0,a0,0
     d4a:	0305                	addi	t1,t1,1
     d4c:	0904                	addi	s1,sp,144
     d4e:	0002                	c.slli64	zero
     d50:	0501                	addi	a0,a0,0
     d52:	68030603          	lb	a2,1664(t1)
     d56:	0809                	addi	a6,a6,2
     d58:	0100                	addi	s0,sp,128
     d5a:	00090103          	lb	sp,0(s2)
     d5e:	0100                	addi	s0,sp,128
     d60:	00090103          	lb	sp,0(s2)
     d64:	0100                	addi	s0,sp,128
     d66:	00090103          	lb	sp,0(s2)
     d6a:	0100                	addi	s0,sp,128
     d6c:	00090103          	lb	sp,0(s2)
     d70:	0100                	addi	s0,sp,128
     d72:	00090103          	lb	sp,0(s2)
     d76:	0100                	addi	s0,sp,128
     d78:	00090203          	lb	tp,0(s2)
     d7c:	0100                	addi	s0,sp,128
     d7e:	0505                	addi	a0,a0,1
     d80:	00090103          	lb	sp,0(s2)
     d84:	0100                	addi	s0,sp,128
     d86:	2a05                	addiw	s4,s4,1
     d88:	00090003          	lb	zero,0(s2)
     d8c:	0100                	addi	s0,sp,128
     d8e:	1005                	c.nop	-31
     d90:	0306                	slli	t1,t1,0x1
     d92:	0900                	addi	s0,sp,144
     d94:	0000                	unimp
     d96:	0501                	addi	a0,a0,0
     d98:	032a                	slli	t1,t1,0xa
     d9a:	0900                	addi	s0,sp,144
     d9c:	0004                	.insn	2, 0x0004
     d9e:	0501                	addi	a0,a0,0
     da0:	01030607          	.insn	4, 0x01030607
     da4:	0409                	addi	s0,s0,2
     da6:	0100                	addi	s0,sp,128
     da8:	0a05                	addi	s4,s4,1
     daa:	0306                	slli	t1,t1,0x1
     dac:	0900                	addi	s0,sp,144
     dae:	0000                	unimp
     db0:	0501                	addi	a0,a0,0
     db2:	02030607          	.insn	4, 0x02030607
     db6:	0409                	addi	s0,s0,2
     db8:	0100                	addi	s0,sp,128
     dba:	0a05                	addi	s4,s4,1
     dbc:	0306                	slli	t1,t1,0x1
     dbe:	0900                	addi	s0,sp,144
     dc0:	0000                	unimp
     dc2:	0501                	addi	a0,a0,0
     dc4:	01030607          	.insn	4, 0x01030607
     dc8:	0209                	addi	tp,tp,2 # 2 <_start-0x7ffffffe>
     dca:	0100                	addi	s0,sp,128
     dcc:	2a05                	addiw	s4,s4,1
     dce:	04097c03          	.insn	4, 0x04097c03
     dd2:	0100                	addi	s0,sp,128
     dd4:	1005                	c.nop	-31
     dd6:	0306                	slli	t1,t1,0x1
     dd8:	0900                	addi	s0,sp,144
     dda:	0000                	unimp
     ddc:	0501                	addi	a0,a0,0
     dde:	032a                	slli	t1,t1,0xa
     de0:	0900                	addi	s0,sp,144
     de2:	0004                	.insn	2, 0x0004
     de4:	0501                	addi	a0,a0,0
     de6:	0605                	addi	a2,a2,1
     de8:	04090603          	lb	a2,64(s2)
     dec:	0100                	addi	s0,sp,128
     dee:	0805                	addi	a6,a6,1
     df0:	0306                	slli	t1,t1,0x1
     df2:	0900                	addi	s0,sp,144
     df4:	0000                	unimp
     df6:	0501                	addi	a0,a0,0
     df8:	0605                	addi	a2,a2,1
     dfa:	04090303          	lb	t1,64(s2)
     dfe:	0100                	addi	s0,sp,128
     e00:	00090103          	lb	sp,0(s2)
     e04:	0100                	addi	s0,sp,128
     e06:	00090103          	lb	sp,0(s2)
     e0a:	0100                	addi	s0,sp,128
     e0c:	00090103          	lb	sp,0(s2)
     e10:	0100                	addi	s0,sp,128
     e12:	00090103          	lb	sp,0(s2)
     e16:	0100                	addi	s0,sp,128
     e18:	00090103          	lb	sp,0(s2)
     e1c:	0100                	addi	s0,sp,128
     e1e:	0805                	addi	a6,a6,1
     e20:	0306                	slli	t1,t1,0x1
     e22:	0978                	addi	a4,sp,156
     e24:	0000                	unimp
     e26:	0501                	addi	a0,a0,0
     e28:	030a                	slli	t1,t1,0x2
     e2a:	0904                	addi	s1,sp,144
     e2c:	0002                	c.slli64	zero
     e2e:	0501                	addi	a0,a0,0
     e30:	0902030f          	.insn	4, 0x0902030f
     e34:	0004                	.insn	2, 0x0004
     e36:	0501                	addi	a0,a0,0
     e38:	097f030b          	.insn	4, 0x097f030b
     e3c:	0002                	c.slli64	zero
     e3e:	0301                	addi	t1,t1,0
     e40:	0902                	c.slli64	s2
     e42:	0002                	c.slli64	zero
     e44:	0501                	addi	a0,a0,0
     e46:	0305                	addi	t1,t1,1
     e48:	00020903          	lb	s2,0(tp) # 0 <_start-0x80000000>
     e4c:	0601                	addi	a2,a2,0
     e4e:	04090003          	lb	zero,64(s2)
     e52:	0100                	addi	s0,sp,128
     e54:	1305                	addi	t1,t1,-31
     e56:	0306                	slli	t1,t1,0x1
     e58:	0900                	addi	s0,sp,144
     e5a:	0000                	unimp
     e5c:	0501                	addi	a0,a0,0
     e5e:	0312                	slli	t1,t1,0x4
     e60:	0900                	addi	s0,sp,144
     e62:	0004                	.insn	2, 0x0004
     e64:	0501                	addi	a0,a0,0
     e66:	0305                	addi	t1,t1,1
     e68:	0900                	addi	s0,sp,144
     e6a:	0004                	.insn	2, 0x0004
     e6c:	0501                	addi	a0,a0,0
     e6e:	030e                	slli	t1,t1,0x3
     e70:	093c                	addi	a5,sp,152
     e72:	0018                	.insn	2, 0x0018
     e74:	0501                	addi	a0,a0,0
     e76:	0305                	addi	t1,t1,1
     e78:	0944                	addi	s1,sp,148
     e7a:	0004                	.insn	2, 0x0004
     e7c:	0501                	addi	a0,a0,0
     e7e:	030c                	addi	a1,sp,384
     e80:	080900db          	.insn	4, 0x080900db
     e84:	0100                	addi	s0,sp,128
     e86:	0905                	addi	s2,s2,1
     e88:	0306                	slli	t1,t1,0x1
     e8a:	7fbc                	ld	a5,120(a5)
     e8c:	0409                	addi	s0,s0,2
     e8e:	0100                	addi	s0,sp,128
     e90:	1305                	addi	t1,t1,-31
     e92:	0306                	slli	t1,t1,0x1
     e94:	0900                	addi	s0,sp,144
     e96:	0000                	unimp
     e98:	0501                	addi	a0,a0,0
     e9a:	0609                	addi	a2,a2,2
     e9c:	04090103          	lb	sp,64(s2)
     ea0:	0100                	addi	s0,sp,128
     ea2:	0e05                	addi	t3,t3,1
     ea4:	0306                	slli	t1,t1,0x1
     ea6:	0900                	addi	s0,sp,144
     ea8:	0000                	unimp
     eaa:	0501                	addi	a0,a0,0
     eac:	030c                	addi	a1,sp,384
     eae:	0900                	addi	s0,sp,144
     eb0:	0004                	.insn	2, 0x0004
     eb2:	0501                	addi	a0,a0,0
     eb4:	0609                	addi	a2,a2,2
     eb6:	04090103          	lb	sp,64(s2)
     eba:	0100                	addi	s0,sp,128
     ebc:	0c05                	addi	s8,s8,1
     ebe:	0306                	slli	t1,t1,0x1
     ec0:	0900                	addi	s0,sp,144
     ec2:	0000                	unimp
     ec4:	0501                	addi	a0,a0,0
     ec6:	061d                	addi	a2,a2,7
     ec8:	0a097d03          	.insn	4, 0x0a097d03
     ecc:	0100                	addi	s0,sp,128
     ece:	0705                	addi	a4,a4,1
     ed0:	02090003          	lb	zero,32(s2)
     ed4:	0100                	addi	s0,sp,128
     ed6:	0905                	addi	s2,s2,1
     ed8:	00090103          	lb	sp,0(s2)
     edc:	0100                	addi	s0,sp,128
     ede:	1f05                	addi	t5,t5,-31
     ee0:	0306                	slli	t1,t1,0x1
     ee2:	0900                	addi	s0,sp,144
     ee4:	0000                	unimp
     ee6:	0501                	addi	a0,a0,0
     ee8:	0324                	addi	s1,sp,392
     eea:	0900                	addi	s0,sp,144
     eec:	000c                	.insn	2, 0x000c
     eee:	0501                	addi	a0,a0,0
     ef0:	09000313          	li	t1,144
     ef4:	0002                	c.slli64	zero
     ef6:	0501                	addi	a0,a0,0
     ef8:	0609                	addi	a2,a2,2
     efa:	04090103          	lb	sp,64(s2)
     efe:	0100                	addi	s0,sp,128
     f00:	0e05                	addi	t3,t3,1
     f02:	0306                	slli	t1,t1,0x1
     f04:	0900                	addi	s0,sp,144
     f06:	0000                	unimp
     f08:	0501                	addi	a0,a0,0
     f0a:	030c                	addi	a1,sp,384
     f0c:	0900                	addi	s0,sp,144
     f0e:	0004                	.insn	2, 0x0004
     f10:	0501                	addi	a0,a0,0
     f12:	0609                	addi	a2,a2,2
     f14:	04090103          	lb	sp,64(s2)
     f18:	0100                	addi	s0,sp,128
     f1a:	0c05                	addi	s8,s8,1
     f1c:	0306                	slli	t1,t1,0x1
     f1e:	0900                	addi	s0,sp,144
     f20:	0000                	unimp
     f22:	0501                	addi	a0,a0,0
     f24:	06030607          	.insn	4, 0x06030607
     f28:	0c09                	addi	s8,s8,2
     f2a:	0100                	addi	s0,sp,128
     f2c:	1105                	addi	sp,sp,-31
     f2e:	0306                	slli	t1,t1,0x1
     f30:	0900                	addi	s0,sp,144
     f32:	0000                	unimp
     f34:	0501                	addi	a0,a0,0
     f36:	01030607          	.insn	4, 0x01030607
     f3a:	0409                	addi	s0,s0,2
     f3c:	0100                	addi	s0,sp,128
     f3e:	1105                	addi	sp,sp,-31
     f40:	0306                	slli	t1,t1,0x1
     f42:	097f 0000 0501 0313 	.insn	10, 0x0961031305010000097f
     f4a:	0961 
     f4c:	0002                	c.slli64	zero
     f4e:	0501                	addi	a0,a0,0
     f50:	2c030607          	.insn	4, 0x2c030607
     f54:	0209                	addi	tp,tp,2 # 2 <_start-0x7ffffffe>
     f56:	0100                	addi	s0,sp,128
     f58:	0a05                	addi	s4,s4,1
     f5a:	0306                	slli	t1,t1,0x1
     f5c:	0900                	addi	s0,sp,144
     f5e:	0000                	unimp
     f60:	0501                	addi	a0,a0,0
     f62:	0901030f          	.insn	4, 0x0901030f
     f66:	0004                	.insn	2, 0x0004
     f68:	0501                	addi	a0,a0,0
     f6a:	0326                	slli	t1,t1,0x9
     f6c:	0900                	addi	s0,sp,144
     f6e:	0002                	c.slli64	zero
     f70:	0501                	addi	a0,a0,0
     f72:	76030607          	.insn	4, 0x76030607
     f76:	0409                	addi	s0,s0,2
     f78:	0100                	addi	s0,sp,128
     f7a:	0a05                	addi	s4,s4,1
     f7c:	0306                	slli	t1,t1,0x1
     f7e:	0900                	addi	s0,sp,144
     f80:	0000                	unimp
     f82:	0501                	addi	a0,a0,0
     f84:	02030607          	.insn	4, 0x02030607
     f88:	0a09                	addi	s4,s4,2
     f8a:	0100                	addi	s0,sp,128
     f8c:	1305                	addi	t1,t1,-31
     f8e:	0306                	slli	t1,t1,0x1
     f90:	0000095b          	.insn	4, 0x095b
     f94:	0501                	addi	a0,a0,0
     f96:	09250307          	.insn	4, 0x09250307
     f9a:	0002                	c.slli64	zero
     f9c:	0501                	addi	a0,a0,0
     f9e:	030a                	slli	t1,t1,0x2
     fa0:	097e                	slli	s2,s2,0x1f
     fa2:	0002                	c.slli64	zero
     fa4:	0501                	addi	a0,a0,0
     fa6:	05030607          	.insn	4, 0x05030607
     faa:	0409                	addi	s0,s0,2
     fac:	0100                	addi	s0,sp,128
     fae:	00090103          	lb	sp,0(s2)
     fb2:	0100                	addi	s0,sp,128
     fb4:	1305                	addi	t1,t1,-31
     fb6:	0306                	slli	t1,t1,0x1
     fb8:	00000957          	.insn	4, 0x0957
     fbc:	0501                	addi	a0,a0,0
     fbe:	09290307          	.insn	4, 0x09290307
     fc2:	0002                	c.slli64	zero
     fc4:	0501                	addi	a0,a0,0
     fc6:	09570313          	addi	t1,a4,149
     fca:	0002                	c.slli64	zero
     fcc:	0501                	addi	a0,a0,0
     fce:	32030607          	.insn	4, 0x32030607
     fd2:	0409                	addi	s0,s0,2
     fd4:	0100                	addi	s0,sp,128
     fd6:	0c05                	addi	s8,s8,1
     fd8:	0306                	slli	t1,t1,0x1
     fda:	0900                	addi	s0,sp,144
     fdc:	0000                	unimp
     fde:	0501                	addi	a0,a0,0
     fe0:	01030607          	.insn	4, 0x01030607
     fe4:	0209                	addi	tp,tp,2 # 2 <_start-0x7ffffffe>
     fe6:	0100                	addi	s0,sp,128
     fe8:	1305                	addi	t1,t1,-31
     fea:	0306                	slli	t1,t1,0x1
     fec:	094d                	addi	s2,s2,19
     fee:	0000                	unimp
     ff0:	0501                	addi	a0,a0,0
     ff2:	09330307          	.insn	4, 0x09330307
     ff6:	0002                	c.slli64	zero
     ff8:	0601                	addi	a2,a2,0
     ffa:	02090403          	lb	s0,32(s2)
     ffe:	0100                	addi	s0,sp,128
    1000:	0200                	addi	s0,sp,256
    1002:	0104                	addi	s1,sp,128
    1004:	0306                	slli	t1,t1,0x1
    1006:	0900                	addi	s0,sp,144
    1008:	0004                	.insn	2, 0x0004
    100a:	0601                	addi	a2,a2,0
    100c:	08090103          	lb	sp,128(s2)
    1010:	0100                	addi	s0,sp,128
    1012:	0306                	slli	t1,t1,0x1
    1014:	097f 0000 0301 0901 	.insn	10, 0x0002090103010000097f
    101c:	0002 
    101e:	0601                	addi	a2,a2,0
    1020:	02090403          	lb	s0,32(s2)
    1024:	0100                	addi	s0,sp,128
    1026:	0e05                	addi	t3,t3,1
    1028:	0306                	slli	t1,t1,0x1
    102a:	0900                	addi	s0,sp,144
    102c:	0000                	unimp
    102e:	0501                	addi	a0,a0,0
    1030:	000a                	c.slli	zero,0x2
    1032:	0402                	c.slli64	s0
    1034:	0301                	addi	t1,t1,0
    1036:	0900                	addi	s0,sp,144
    1038:	0008                	.insn	2, 0x0008
    103a:	0501                	addi	a0,a0,0
    103c:	02030607          	.insn	4, 0x02030607
    1040:	0409                	addi	s0,s0,2
    1042:	0100                	addi	s0,sp,128
    1044:	0a05                	addi	s4,s4,1
    1046:	0306                	slli	t1,t1,0x1
    1048:	0900                	addi	s0,sp,144
    104a:	0000                	unimp
    104c:	0501                	addi	a0,a0,0
    104e:	0015                	c.nop	5
    1050:	0402                	c.slli64	s0
    1052:	0301                	addi	t1,t1,0
    1054:	0900                	addi	s0,sp,144
    1056:	0004                	.insn	2, 0x0004
    1058:	0501                	addi	a0,a0,0
    105a:	0020                	addi	s0,sp,8
    105c:	0402                	c.slli64	s0
    105e:	0601                	addi	a2,a2,0
    1060:	08090303          	lb	t1,128(s2)
    1064:	0100                	addi	s0,sp,128
    1066:	1205                	addi	tp,tp,-31 # ffffffffffffffe1 <__global_pointer$+0xffffffff7fffe799>
    1068:	0200                	addi	s0,sp,256
    106a:	0104                	addi	s1,sp,128
    106c:	0306                	slli	t1,t1,0x1
    106e:	0900                	addi	s0,sp,144
    1070:	0000                	unimp
    1072:	0501                	addi	a0,a0,0
    1074:	0020                	addi	s0,sp,8
    1076:	0402                	c.slli64	s0
    1078:	0301                	addi	t1,t1,0
    107a:	0900                	addi	s0,sp,144
    107c:	0004                	.insn	2, 0x0004
    107e:	0501                	addi	a0,a0,0
    1080:	0609                	addi	a2,a2,2
    1082:	04097e03          	.insn	4, 0x04097e03
    1086:	0100                	addi	s0,sp,128
    1088:	1705                	addi	a4,a4,-31
    108a:	0306                	slli	t1,t1,0x1
    108c:	0900                	addi	s0,sp,144
    108e:	0000                	unimp
    1090:	0501                	addi	a0,a0,0
    1092:	0014                	.insn	2, 0x0014
    1094:	0402                	c.slli64	s0
    1096:	0301                	addi	t1,t1,0
    1098:	0900                	addi	s0,sp,144
    109a:	0008                	.insn	2, 0x0008
    109c:	0501                	addi	a0,a0,0
    109e:	0034                	addi	a3,sp,8
    10a0:	0402                	c.slli64	s0
    10a2:	0601                	addi	a2,a2,0
    10a4:	04090003          	lb	zero,64(s2)
    10a8:	0100                	addi	s0,sp,128
    10aa:	0b05                	addi	s6,s6,1
    10ac:	0306                	slli	t1,t1,0x1
    10ae:	0901                	addi	s2,s2,0
    10b0:	0004                	.insn	2, 0x0004
    10b2:	0601                	addi	a2,a2,0
    10b4:	02090003          	lb	zero,32(s2)
    10b8:	0100                	addi	s0,sp,128
    10ba:	3e05                	addiw	t3,t3,-31
    10bc:	0200                	addi	s0,sp,256
    10be:	0304                	addi	s1,sp,384
    10c0:	06097f03          	.insn	4, 0x06097f03
    10c4:	0100                	addi	s0,sp,128
    10c6:	3405                	addiw	s0,s0,-31
    10c8:	0200                	addi	s0,sp,256
    10ca:	0104                	addi	s1,sp,128
    10cc:	02090003          	lb	zero,32(s2)
    10d0:	0100                	addi	s0,sp,128
    10d2:	2005                	.insn	2, 0x2005
    10d4:	0200                	addi	s0,sp,256
    10d6:	0104                	addi	s1,sp,128
    10d8:	04090203          	lb	tp,64(s2)
    10dc:	0100                	addi	s0,sp,128
    10de:	1205                	addi	tp,tp,-31 # ffffffffffffffe1 <__global_pointer$+0xffffffff7fffe799>
    10e0:	0200                	addi	s0,sp,256
    10e2:	0104                	addi	s1,sp,128
    10e4:	0306                	slli	t1,t1,0x1
    10e6:	0900                	addi	s0,sp,144
    10e8:	0000                	unimp
    10ea:	0501                	addi	a0,a0,0
    10ec:	0020                	addi	s0,sp,8
    10ee:	0402                	c.slli64	s0
    10f0:	0301                	addi	t1,t1,0
    10f2:	0900                	addi	s0,sp,144
    10f4:	0004                	.insn	2, 0x0004
    10f6:	0501                	addi	a0,a0,0
    10f8:	0609                	addi	a2,a2,2
    10fa:	06090103          	lb	sp,96(s2)
    10fe:	0100                	addi	s0,sp,128
    1100:	04090103          	lb	sp,64(s2)
    1104:	0100                	addi	s0,sp,128
    1106:	0a05                	addi	s4,s4,1
    1108:	0306                	slli	t1,t1,0x1
    110a:	0900                	addi	s0,sp,144
    110c:	0000                	unimp
    110e:	0501                	addi	a0,a0,0
    1110:	004d                	c.nop	19
    1112:	0402                	c.slli64	s0
    1114:	0605                	addi	a2,a2,1
    1116:	02097e03          	.insn	4, 0x02097e03
    111a:	0100                	addi	s0,sp,128
    111c:	2005                	.insn	2, 0x2005
    111e:	0200                	addi	s0,sp,256
    1120:	0104                	addi	s1,sp,128
    1122:	02090003          	lb	zero,32(s2)
    1126:	0100                	addi	s0,sp,128
    1128:	1205                	addi	tp,tp,-31 # ffffffffffffffe1 <__global_pointer$+0xffffffff7fffe799>
    112a:	0200                	addi	s0,sp,256
    112c:	0104                	addi	s1,sp,128
    112e:	0306                	slli	t1,t1,0x1
    1130:	0900                	addi	s0,sp,144
    1132:	0000                	unimp
    1134:	0501                	addi	a0,a0,0
    1136:	0020                	addi	s0,sp,8
    1138:	0402                	c.slli64	s0
    113a:	0301                	addi	t1,t1,0
    113c:	0900                	addi	s0,sp,144
    113e:	0004                	.insn	2, 0x0004
    1140:	0001                	nop
    1142:	0402                	c.slli64	s0
    1144:	0302                	c.slli64	t1
    1146:	0900                	addi	s0,sp,144
    1148:	0002                	c.slli64	zero
    114a:	0501                	addi	a0,a0,0
    114c:	0032                	c.slli	zero,0xc
    114e:	0402                	c.slli64	s0
    1150:	0304                	addi	s1,sp,384
    1152:	0900                	addi	s0,sp,144
    1154:	0004                	.insn	2, 0x0004
    1156:	0501                	addi	a0,a0,0
    1158:	0014                	.insn	2, 0x0014
    115a:	0402                	c.slli64	s0
    115c:	0601                	addi	a2,a2,0
    115e:	06090403          	lb	s0,96(s2)
    1162:	0100                	addi	s0,sp,128
    1164:	0905                	addi	s2,s2,1
    1166:	0306                	slli	t1,t1,0x1
    1168:	0901                	addi	s2,s2,0
    116a:	0004                	.insn	2, 0x0004
    116c:	0601                	addi	a2,a2,0
    116e:	04090003          	lb	zero,64(s2)
    1172:	0100                	addi	s0,sp,128
    1174:	1e05                	addi	t3,t3,-31
    1176:	0200                	addi	s0,sp,256
    1178:	0204                	addi	s1,sp,256
    117a:	06097f03          	.insn	4, 0x06097f03
    117e:	0100                	addi	s0,sp,128
    1180:	1405                	addi	s0,s0,-31
    1182:	0200                	addi	s0,sp,256
    1184:	0104                	addi	s1,sp,128
    1186:	02090003          	lb	zero,32(s2)
    118a:	0100                	addi	s0,sp,128
    118c:	0e05                	addi	t3,t3,1
    118e:	0306                	slli	t1,t1,0x1
    1190:	00040977          	.insn	4, 0x00040977
    1194:	0501                	addi	a0,a0,0
    1196:	0f030607          	.insn	4, 0x0f030607
    119a:	0609                	addi	a2,a2,2
    119c:	0100                	addi	s0,sp,128
    119e:	0305                	addi	t1,t1,1
    11a0:	097f9303          	lh	t1,151(t6)
    11a4:	0000                	unimp
    11a6:	0501                	addi	a0,a0,0
    11a8:	0606                	slli	a2,a2,0x1
    11aa:	00090003          	lb	zero,0(s2)
    11ae:	0100                	addi	s0,sp,128
    11b0:	0805                	addi	a6,a6,1
    11b2:	0306                	slli	t1,t1,0x1
    11b4:	0902                	c.slli64	s2
    11b6:	0006                	c.slli	zero,0x1
    11b8:	0501                	addi	a0,a0,0
    11ba:	0003060b          	.insn	4, 0x0003060b
    11be:	0009                	c.nop	2
    11c0:	0100                	addi	s0,sp,128
    11c2:	0505                	addi	a0,a0,1
    11c4:	0306                	slli	t1,t1,0x1
    11c6:	0901                	addi	s2,s2,0
    11c8:	0002                	c.slli64	zero
    11ca:	0501                	addi	a0,a0,0
    11cc:	060c                	addi	a1,sp,768
    11ce:	00090003          	lb	zero,0(s2)
    11d2:	0100                	addi	s0,sp,128
    11d4:	0505                	addi	a0,a0,1
    11d6:	0306                	slli	t1,t1,0x1
    11d8:	097e                	slli	s2,s2,0x1f
    11da:	0008                	.insn	2, 0x0008
    11dc:	0501                	addi	a0,a0,0
    11de:	060c                	addi	a1,sp,768
    11e0:	00090003          	lb	zero,0(s2)
    11e4:	0100                	addi	s0,sp,128
    11e6:	0705                	addi	a4,a4,1
    11e8:	0306                	slli	t1,t1,0x1
    11ea:	00ed                	addi	ra,ra,27
    11ec:	0609                	addi	a2,a2,2
    11ee:	0100                	addi	s0,sp,128
    11f0:	0a05                	addi	s4,s4,1
    11f2:	0306                	slli	t1,t1,0x1
    11f4:	0900                	addi	s0,sp,144
    11f6:	0000                	unimp
    11f8:	0501                	addi	a0,a0,0
    11fa:	0402000b          	.insn	4, 0x0402000b
    11fe:	0301                	addi	t1,t1,0
    1200:	097f 0004 0501 030c 	.insn	10, 0x0905030c05010004097f
    1208:	0905 
    120a:	0002                	c.slli64	zero
    120c:	0501                	addi	a0,a0,0
    120e:	0605                	addi	a2,a2,1
    1210:	097f9303          	lh	t1,151(t6)
    1214:	0004                	.insn	2, 0x0004
    1216:	0501                	addi	a0,a0,0
    1218:	000c                	.insn	2, 0x000c
    121a:	0402                	c.slli64	s0
    121c:	0601                	addi	a2,a2,0
    121e:	00090003          	lb	zero,0(s2)
    1222:	0100                	addi	s0,sp,128
    1224:	04090003          	lb	zero,64(s2)
    1228:	0100                	addi	s0,sp,128
    122a:	0905                	addi	s2,s2,1
    122c:	0306                	slli	t1,t1,0x1
    122e:	00ea                	slli	ra,ra,0x1a
    1230:	0409                	addi	s0,s0,2
    1232:	0100                	addi	s0,sp,128
    1234:	08090103          	lb	sp,128(s2)
    1238:	0100                	addi	s0,sp,128
    123a:	0f05                	addi	t5,t5,1
    123c:	0306                	slli	t1,t1,0x1
    123e:	0900                	addi	s0,sp,144
    1240:	0000                	unimp
    1242:	0501                	addi	a0,a0,0
    1244:	030c                	addi	a1,sp,384
    1246:	0902                	c.slli64	s2
    1248:	0004                	.insn	2, 0x0004
    124a:	0501                	addi	a0,a0,0
    124c:	10030607          	.insn	4, 0x10030607
    1250:	0609                	addi	a2,a2,2
    1252:	0100                	addi	s0,sp,128
    1254:	00090003          	lb	zero,0(s2)
    1258:	0100                	addi	s0,sp,128
    125a:	3305                	addiw	t1,t1,-31
    125c:	00090003          	lb	zero,0(s2)
    1260:	0100                	addi	s0,sp,128
    1262:	0705                	addi	a4,a4,1
    1264:	00090103          	lb	sp,0(s2)
    1268:	0100                	addi	s0,sp,128
    126a:	00090103          	lb	sp,0(s2)
    126e:	0100                	addi	s0,sp,128
    1270:	08090103          	lb	sp,128(s2)
    1274:	0100                	addi	s0,sp,128
    1276:	08090703          	lb	a4,128(s2)
    127a:	0100                	addi	s0,sp,128
    127c:	0305                	addi	t1,t1,1
    127e:	097eea03          	lwu	s4,151(t4)
    1282:	0000                	unimp
    1284:	0501                	addi	a0,a0,0
    1286:	060c                	addi	a1,sp,768
    1288:	09019403          	lh	s0,144(gp) # 800018d8 <__global_pointer$+0x90>
    128c:	0000                	unimp
    128e:	0501                	addi	a0,a0,0
    1290:	0605                	addi	a2,a2,1
    1292:	097eef03          	lwu	t5,151(t4)
    1296:	0002                	c.slli64	zero
    1298:	0501                	addi	a0,a0,0
    129a:	060c                	addi	a1,sp,768
    129c:	00090003          	lb	zero,0(s2)
    12a0:	0100                	addi	s0,sp,128
    12a2:	09019103          	lh	sp,144(gp) # 800018d8 <__global_pointer$+0x90>
    12a6:	000a                	c.slli	zero,0x2
    12a8:	0501                	addi	a0,a0,0
    12aa:	02030607          	.insn	4, 0x02030607
    12ae:	0209                	addi	tp,tp,2 # 2 <_start-0x7ffffffe>
    12b0:	0100                	addi	s0,sp,128
    12b2:	0305                	addi	t1,t1,1
    12b4:	097eea03          	lwu	s4,151(t4)
    12b8:	0000                	unimp
    12ba:	0501                	addi	a0,a0,0
    12bc:	0606                	slli	a2,a2,0x1
    12be:	00090003          	lb	zero,0(s2)
    12c2:	0100                	addi	s0,sp,128
    12c4:	0505                	addi	a0,a0,1
    12c6:	0306                	slli	t1,t1,0x1
    12c8:	0901                	addi	s2,s2,0
    12ca:	0006                	c.slli	zero,0x1
    12cc:	0501                	addi	a0,a0,0
    12ce:	060c                	addi	a1,sp,768
    12d0:	00090003          	lb	zero,0(s2)
    12d4:	0100                	addi	s0,sp,128
    12d6:	0705                	addi	a4,a4,1
    12d8:	0306                	slli	t1,t1,0x1
    12da:	06090197          	auipc	gp,0x6090
    12de:	0100                	addi	s0,sp,128
    12e0:	0305                	addi	t1,t1,1
    12e2:	097ed403          	lhu	s0,151(t4)
    12e6:	0002                	c.slli64	zero
    12e8:	0301                	addi	t1,t1,0
    12ea:	0901                	addi	s2,s2,0
    12ec:	0000                	unimp
    12ee:	0301                	addi	t1,t1,0
    12f0:	0902                	c.slli64	s2
    12f2:	0000                	unimp
    12f4:	0501                	addi	a0,a0,0
    12f6:	0305                	addi	t1,t1,1
    12f8:	0902                	c.slli64	s2
    12fa:	0000                	unimp
    12fc:	0501                	addi	a0,a0,0
    12fe:	00030617          	auipc	a2,0x30
    1302:	0009                	c.nop	2
    1304:	0100                	addi	s0,sp,128
    1306:	1105                	addi	sp,sp,-31
    1308:	0a090003          	lb	zero,160(s2)
    130c:	0100                	addi	s0,sp,128
    130e:	0505                	addi	a0,a0,1
    1310:	0306                	slli	t1,t1,0x1
    1312:	0901                	addi	s2,s2,0
    1314:	0002                	c.slli64	zero
    1316:	0501                	addi	a0,a0,0
    1318:	060d                	addi	a2,a2,3 # 31301 <_start-0x7ffcecff>
    131a:	02097f03          	.insn	4, 0x02097f03
    131e:	0100                	addi	s0,sp,128
    1320:	0805                	addi	a6,a6,1
    1322:	02090103          	lb	sp,32(s2)
    1326:	0100                	addi	s0,sp,128
    1328:	0505                	addi	a0,a0,1
    132a:	0306                	slli	t1,t1,0x1
    132c:	0902                	c.slli64	s2
    132e:	0004                	.insn	2, 0x0004
    1330:	0501                	addi	a0,a0,0
    1332:	0609                	addi	a2,a2,2
    1334:	00090003          	lb	zero,0(s2)
    1338:	0100                	addi	s0,sp,128
    133a:	0306                	slli	t1,t1,0x1
    133c:	0004097b          	.insn	4, 0x0004097b
    1340:	0501                	addi	a0,a0,0
    1342:	09000303          	lb	t1,144(zero) # 90 <_start-0x7fffff70>
    1346:	0000                	unimp
    1348:	0501                	addi	a0,a0,0
    134a:	0305                	addi	t1,t1,1
    134c:	0902                	c.slli64	s2
    134e:	0000                	unimp
    1350:	0501                	addi	a0,a0,0
    1352:	060d                	addi	a2,a2,3
    1354:	00090003          	lb	zero,0(s2)
    1358:	0100                	addi	s0,sp,128
    135a:	1705                	addi	a4,a4,-31
    135c:	02090003          	lb	zero,32(s2)
    1360:	0100                	addi	s0,sp,128
    1362:	1105                	addi	sp,sp,-31
    1364:	04090003          	lb	zero,64(s2)
    1368:	0100                	addi	s0,sp,128
    136a:	0505                	addi	a0,a0,1
    136c:	0306                	slli	t1,t1,0x1
    136e:	0901                	addi	s2,s2,0
    1370:	0002                	c.slli64	zero
    1372:	0501                	addi	a0,a0,0
    1374:	0608                	addi	a0,sp,768
    1376:	00090003          	lb	zero,0(s2)
    137a:	0100                	addi	s0,sp,128
    137c:	1205                	addi	tp,tp,-31 # ffffffffffffffe1 <__global_pointer$+0xffffffff7fffe799>
    137e:	0306                	slli	t1,t1,0x1
    1380:	0905                	addi	s2,s2,1
    1382:	0006                	c.slli	zero,0x1
    1384:	0501                	addi	a0,a0,0
    1386:	0003060f          	.insn	4, 0x0003060f
    138a:	0009                	c.nop	2
    138c:	0100                	addi	s0,sp,128
    138e:	1205                	addi	tp,tp,-31 # ffffffffffffffe1 <__global_pointer$+0xffffffff7fffe799>
    1390:	08090003          	lb	zero,128(s2)
    1394:	0100                	addi	s0,sp,128
    1396:	0505                	addi	a0,a0,1
    1398:	0306                	slli	t1,t1,0x1
    139a:	0901                	addi	s2,s2,0
    139c:	0004                	.insn	2, 0x0004
    139e:	0501                	addi	a0,a0,0
    13a0:	0312                	slli	t1,t1,0x4
    13a2:	097f 0006 0501 060f 	.insn	10, 0x0003060f05010006097f
    13aa:	0003 
    13ac:	0009                	c.nop	2
    13ae:	0100                	addi	s0,sp,128
    13b0:	1205                	addi	tp,tp,-31 # ffffffffffffffe1 <__global_pointer$+0xffffffff7fffe799>
    13b2:	02090003          	lb	zero,32(s2)
    13b6:	0100                	addi	s0,sp,128
    13b8:	1005                	c.nop	-31
    13ba:	0306                	slli	t1,t1,0x1
    13bc:	00040903          	lb	s2,0(s0)
    13c0:	0501                	addi	a0,a0,0
    13c2:	01030633          	add	a2,t1,a6
    13c6:	1009                	c.nop	-30
    13c8:	0100                	addi	s0,sp,128
    13ca:	0200                	addi	s0,sp,256
    13cc:	0204                	addi	s1,sp,256
    13ce:	02090003          	lb	zero,32(s2)
    13d2:	0100                	addi	s0,sp,128
    13d4:	0200                	addi	s0,sp,256
    13d6:	0104                	addi	s1,sp,128
    13d8:	04090003          	lb	zero,64(s2)
    13dc:	0100                	addi	s0,sp,128
    13de:	0505                	addi	a0,a0,1
    13e0:	08093103          	ld	sp,128(s2)
    13e4:	0100                	addi	s0,sp,128
    13e6:	0805                	addi	a6,a6,1
    13e8:	0306                	slli	t1,t1,0x1
    13ea:	0956                	slli	s2,s2,0x15
    13ec:	0004                	.insn	2, 0x0004
    13ee:	0501                	addi	a0,a0,0
    13f0:	0003060b          	.insn	4, 0x0003060b
    13f4:	0009                	c.nop	2
    13f6:	0100                	addi	s0,sp,128
    13f8:	0505                	addi	a0,a0,1
    13fa:	0306                	slli	t1,t1,0x1
    13fc:	00020903          	lb	s2,0(tp) # 0 <_start-0x80000000>
    1400:	0501                	addi	a0,a0,0
    1402:	000c                	.insn	2, 0x000c
    1404:	0402                	c.slli64	s0
    1406:	0601                	addi	a2,a2,0
    1408:	00090003          	lb	zero,0(s2)
    140c:	0100                	addi	s0,sp,128
    140e:	04090003          	lb	zero,64(s2)
    1412:	0100                	addi	s0,sp,128
    1414:	0505                	addi	a0,a0,1
    1416:	0200                	addi	s0,sp,256
    1418:	0404                	addi	s1,sp,512
    141a:	04097603          	.insn	4, 0x04097603
    141e:	0100                	addi	s0,sp,128
    1420:	1005                	c.nop	-31
    1422:	0306                	slli	t1,t1,0x1
    1424:	097f 0006 0501 0305 	.insn	10, 0x0901030505010006097f
    142c:	0901 
    142e:	0008                	.insn	2, 0x0008
    1430:	0501                	addi	a0,a0,0
    1432:	0003060f          	.insn	4, 0x0003060f
    1436:	0009                	c.nop	2
    1438:	0100                	addi	s0,sp,128
    143a:	3305                	addiw	t1,t1,-31
    143c:	0200                	addi	s0,sp,256
    143e:	0204                	addi	s1,sp,256
    1440:	04090003          	lb	zero,64(s2)
    1444:	0100                	addi	s0,sp,128
    1446:	02090003          	lb	zero,32(s2)
    144a:	0100                	addi	s0,sp,128
    144c:	0200                	addi	s0,sp,256
    144e:	0104                	addi	s1,sp,128
    1450:	04090003          	lb	zero,64(s2)
    1454:	0100                	addi	s0,sp,128
    1456:	0705                	addi	a4,a4,1
    1458:	0306                	slli	t1,t1,0x1
    145a:	01a2                	slli	gp,gp,0x8
    145c:	0809                	addi	a6,a6,2
    145e:	0100                	addi	s0,sp,128
    1460:	08090103          	lb	sp,128(s2)
    1464:	0100                	addi	s0,sp,128
    1466:	02090403          	lb	s0,32(s2)
    146a:	0100                	addi	s0,sp,128
    146c:	08090103          	lb	sp,128(s2)
    1470:	0100                	addi	s0,sp,128
    1472:	00090103          	lb	sp,0(s2)
    1476:	0100                	addi	s0,sp,128
    1478:	0b05                	addi	s6,s6,1
    147a:	0306                	slli	t1,t1,0x1
    147c:	097f 0000 0501 0307 	.insn	10, 0x0901030705010000097f
    1484:	0901 
    1486:	0002                	c.slli64	zero
    1488:	0501                	addi	a0,a0,0
    148a:	0020                	addi	s0,sp,8
    148c:	0402                	c.slli64	s0
    148e:	0601                	addi	a2,a2,0
    1490:	02094903          	lbu	s2,32(s2)
    1494:	0100                	addi	s0,sp,128
    1496:	1205                	addi	tp,tp,-31 # ffffffffffffffe1 <__global_pointer$+0xffffffff7fffe799>
    1498:	0200                	addi	s0,sp,256
    149a:	0104                	addi	s1,sp,128
    149c:	0306                	slli	t1,t1,0x1
    149e:	0900                	addi	s0,sp,144
    14a0:	0000                	unimp
    14a2:	0501                	addi	a0,a0,0
    14a4:	0020                	addi	s0,sp,8
    14a6:	0402                	c.slli64	s0
    14a8:	0301                	addi	t1,t1,0
    14aa:	0900                	addi	s0,sp,144
    14ac:	0004                	.insn	2, 0x0004
    14ae:	0501                	addi	a0,a0,0
    14b0:	030e                	slli	t1,t1,0x3
    14b2:	0004097b          	.insn	4, 0x0004097b
    14b6:	0501                	addi	a0,a0,0
    14b8:	02030607          	.insn	4, 0x02030607
    14bc:	0409                	addi	s0,s0,2
    14be:	0100                	addi	s0,sp,128
    14c0:	0b05                	addi	s6,s6,1
    14c2:	0306                	slli	t1,t1,0x1
    14c4:	097f 0000 0501 0012 	.insn	10, 0x0402001205010000097f
    14cc:	0402 
    14ce:	0301                	addi	t1,t1,0
    14d0:	0904                	addi	s1,sp,144
    14d2:	0008                	.insn	2, 0x0008
    14d4:	0501                	addi	a0,a0,0
    14d6:	030a                	slli	t1,t1,0x2
    14d8:	097d                	addi	s2,s2,31
    14da:	0004                	.insn	2, 0x0004
    14dc:	0501                	addi	a0,a0,0
    14de:	0301                	addi	t1,t1,0
    14e0:	093d                	addi	s2,s2,15
    14e2:	0006                	c.slli	zero,0x1
    14e4:	0601                	addi	a2,a2,0
    14e6:	1c090303          	lb	t1,448(s2)
    14ea:	0100                	addi	s0,sp,128
    14ec:	0305                	addi	t1,t1,1
    14ee:	12090103          	lb	sp,288(s2)
    14f2:	0100                	addi	s0,sp,128
    14f4:	00090103          	lb	sp,0(s2)
    14f8:	0100                	addi	s0,sp,128
    14fa:	04090203          	lb	tp,64(s2)
    14fe:	0100                	addi	s0,sp,128
    1500:	10090203          	lb	tp,256(s2)
    1504:	0100                	addi	s0,sp,128
    1506:	00090103          	lb	sp,0(s2)
    150a:	0100                	addi	s0,sp,128
    150c:	0105                	addi	sp,sp,1
    150e:	0306                	slli	t1,t1,0x1
    1510:	0901                	addi	s2,s2,0
    1512:	0000                	unimp
    1514:	0601                	addi	a2,a2,0
    1516:	08090303          	lb	t1,128(s2)
    151a:	0100                	addi	s0,sp,128
    151c:	0305                	addi	t1,t1,1
    151e:	14090103          	lb	sp,320(s2)
    1522:	0100                	addi	s0,sp,128
    1524:	00090103          	lb	sp,0(s2)
    1528:	0100                	addi	s0,sp,128
    152a:	0905                	addi	s2,s2,1
    152c:	0306                	slli	t1,t1,0x1
    152e:	0900                	addi	s0,sp,144
    1530:	0000                	unimp
    1532:	0501                	addi	a0,a0,0
    1534:	01030603          	lb	a2,16(t1)
    1538:	0209                	addi	tp,tp,2 # 2 <_start-0x7ffffffe>
    153a:	0100                	addi	s0,sp,128
    153c:	04090203          	lb	tp,64(s2)
    1540:	0100                	addi	s0,sp,128
    1542:	00090703          	lb	a4,0(s2)
    1546:	0100                	addi	s0,sp,128
    1548:	10090103          	lb	sp,256(s2)
    154c:	0100                	addi	s0,sp,128
    154e:	0805                	addi	a6,a6,1
    1550:	0306                	slli	t1,t1,0x1
    1552:	0900                	addi	s0,sp,144
    1554:	0002                	c.slli64	zero
    1556:	0501                	addi	a0,a0,0
    1558:	02030603          	lb	a2,32(t1)
    155c:	0409                	addi	s0,s0,2
    155e:	0100                	addi	s0,sp,128
    1560:	00090103          	lb	sp,0(s2)
    1564:	0100                	addi	s0,sp,128
    1566:	0105                	addi	sp,sp,1
    1568:	0306                	slli	t1,t1,0x1
    156a:	0901                	addi	s2,s2,0
    156c:	0000                	unimp
    156e:	0601                	addi	a2,a2,0
    1570:	097dec03          	lwu	s8,151(s11)
    1574:	000c                	.insn	2, 0x000c
    1576:	0501                	addi	a0,a0,0
    1578:	09010303          	lb	t1,144(sp)
    157c:	001c                	.insn	2, 0x001c
    157e:	0301                	addi	t1,t1,0
    1580:	0976                	slli	s2,s2,0x1d
    1582:	0000                	unimp
    1584:	0301                	addi	t1,t1,0
    1586:	0901                	addi	s2,s2,0
    1588:	0000                	unimp
    158a:	0301                	addi	t1,t1,0
    158c:	0901                	addi	s2,s2,0
    158e:	0000                	unimp
    1590:	0501                	addi	a0,a0,0
    1592:	00030623          	sb	zero,12(t1)
    1596:	0009                	c.nop	2
    1598:	0100                	addi	s0,sp,128
    159a:	0305                	addi	t1,t1,1
    159c:	0306                	slli	t1,t1,0x1
    159e:	0901                	addi	s2,s2,0
    15a0:	000c                	.insn	2, 0x000c
    15a2:	0301                	addi	t1,t1,0
    15a4:	0901                	addi	s2,s2,0
    15a6:	000a                	c.slli	zero,0x2
    15a8:	0301                	addi	t1,t1,0
    15aa:	0901                	addi	s2,s2,0
    15ac:	0000                	unimp
    15ae:	0301                	addi	t1,t1,0
    15b0:	0906                	slli	s2,s2,0x1
    15b2:	0012                	c.slli	zero,0x4
    15b4:	0301                	addi	t1,t1,0
    15b6:	0901                	addi	s2,s2,0
    15b8:	0008                	.insn	2, 0x0008
    15ba:	0301                	addi	t1,t1,0
    15bc:	7efa                	ld	t4,440(sp)
    15be:	0009                	c.nop	2
    15c0:	0100                	addi	s0,sp,128
    15c2:	0205                	addi	tp,tp,1 # 1 <_start-0x7fffffff>
    15c4:	00090103          	lb	sp,0(s2)
    15c8:	0100                	addi	s0,sp,128
    15ca:	0c05                	addi	s8,s8,1
    15cc:	0306                	slli	t1,t1,0x1
    15ce:	0900                	addi	s0,sp,144
    15d0:	0000                	unimp
    15d2:	0501                	addi	a0,a0,0
    15d4:	88030603          	lb	a2,-1920(t1)
    15d8:	0901                	addi	s2,s2,0
    15da:	000a                	c.slli	zero,0x2
    15dc:	0501                	addi	a0,a0,0
    15de:	060d                	addi	a2,a2,3
    15e0:	00090003          	lb	zero,0(s2)
    15e4:	0100                	addi	s0,sp,128
    15e6:	0305                	addi	t1,t1,1
    15e8:	0306                	slli	t1,t1,0x1
    15ea:	0902                	c.slli64	s2
    15ec:	000a                	c.slli	zero,0x2
    15ee:	0301                	addi	t1,t1,0
    15f0:	0901                	addi	s2,s2,0
    15f2:	0000                	unimp
    15f4:	0301                	addi	t1,t1,0
    15f6:	0901                	addi	s2,s2,0
    15f8:	0000                	unimp
    15fa:	0501                	addi	a0,a0,0
    15fc:	0308                	addi	a0,sp,384
    15fe:	0900                	addi	s0,sp,144
    1600:	0000                	unimp
    1602:	0501                	addi	a0,a0,0
    1604:	0015                	c.nop	5
    1606:	0402                	c.slli64	s0
    1608:	0301                	addi	t1,t1,0
    160a:	0900                	addi	s0,sp,144
    160c:	0000                	unimp
    160e:	0501                	addi	a0,a0,0
    1610:	0305                	addi	t1,t1,1
    1612:	0901                	addi	s2,s2,0
    1614:	0000                	unimp
    1616:	0501                	addi	a0,a0,0
    1618:	0611                	addi	a2,a2,4
    161a:	00090003          	lb	zero,0(s2)
    161e:	0100                	addi	s0,sp,128
    1620:	0805                	addi	a6,a6,1
    1622:	08090003          	lb	zero,128(s2)
    1626:	0100                	addi	s0,sp,128
    1628:	2605                	addiw	a2,a2,1
    162a:	0200                	addi	s0,sp,256
    162c:	0204                	addi	s1,sp,256
    162e:	0306                	slli	t1,t1,0x1
    1630:	097f 0002 0501 0015 	.insn	10, 0x0402001505010002097f
    1638:	0402 
    163a:	0301                	addi	t1,t1,0
    163c:	0900                	addi	s0,sp,144
    163e:	0000                	unimp
    1640:	0501                	addi	a0,a0,0
    1642:	0305                	addi	t1,t1,1
    1644:	0901                	addi	s2,s2,0
    1646:	0000                	unimp
    1648:	0501                	addi	a0,a0,0
    164a:	0611                	addi	a2,a2,4
    164c:	00090003          	lb	zero,0(s2)
    1650:	0100                	addi	s0,sp,128
    1652:	0805                	addi	a6,a6,1
    1654:	04090003          	lb	zero,64(s2)
    1658:	0100                	addi	s0,sp,128
    165a:	0905                	addi	s2,s2,1
    165c:	02097e03          	.insn	4, 0x02097e03
    1660:	0100                	addi	s0,sp,128
    1662:	0705                	addi	a4,a4,1
    1664:	0306                	slli	t1,t1,0x1
    1666:	00020903          	lb	s2,0(tp) # 0 <_start-0x80000000>
    166a:	0501                	addi	a0,a0,0
    166c:	0003060f          	.insn	4, 0x0003060f
    1670:	0009                	c.nop	2
    1672:	0100                	addi	s0,sp,128
    1674:	0c05                	addi	s8,s8,1
    1676:	0200                	addi	s0,sp,256
    1678:	0104                	addi	s1,sp,128
    167a:	12090003          	lb	zero,288(s2)
    167e:	0100                	addi	s0,sp,128
    1680:	2605                	addiw	a2,a2,1
    1682:	0200                	addi	s0,sp,256
    1684:	0204                	addi	s1,sp,256
    1686:	0306                	slli	t1,t1,0x1
    1688:	097e                	slli	s2,s2,0x1f
    168a:	0002                	c.slli64	zero
    168c:	0501                	addi	a0,a0,0
    168e:	0015                	c.nop	5
    1690:	0402                	c.slli64	s0
    1692:	0301                	addi	t1,t1,0
    1694:	0900                	addi	s0,sp,144
    1696:	0000                	unimp
    1698:	0501                	addi	a0,a0,0
    169a:	09030303          	lb	t1,144(t1)
    169e:	0000                	unimp
    16a0:	0501                	addi	a0,a0,0
    16a2:	0606                	slli	a2,a2,0x1
    16a4:	00090003          	lb	zero,0(s2)
    16a8:	0100                	addi	s0,sp,128
    16aa:	0505                	addi	a0,a0,1
    16ac:	0306                	slli	t1,t1,0x1
    16ae:	0901                	addi	s2,s2,0
    16b0:	0004                	.insn	2, 0x0004
    16b2:	0501                	addi	a0,a0,0
    16b4:	094d0303          	lb	t1,148(s10) # 19094 <_start-0x7ffe6f6c>
    16b8:	0000                	unimp
    16ba:	0301                	addi	t1,t1,0
    16bc:	0935                	addi	s2,s2,13
    16be:	0006                	c.slli	zero,0x1
    16c0:	0301                	addi	t1,t1,0
    16c2:	7fbe                	ld	t6,488(sp)
    16c4:	0009                	c.nop	2
    16c6:	0100                	addi	s0,sp,128
    16c8:	0705                	addi	a4,a4,1
    16ca:	06093e03          	ld	t3,96(s2)
    16ce:	0100                	addi	s0,sp,128
    16d0:	0f05                	addi	t5,t5,1
    16d2:	0306                	slli	t1,t1,0x1
    16d4:	0900                	addi	s0,sp,144
    16d6:	0000                	unimp
    16d8:	0501                	addi	a0,a0,0
    16da:	000c                	.insn	2, 0x000c
    16dc:	0402                	c.slli64	s0
    16de:	0301                	addi	t1,t1,0
    16e0:	0900                	addi	s0,sp,144
    16e2:	001a                	c.slli	zero,0x6
    16e4:	0501                	addi	a0,a0,0
    16e6:	0026                	c.slli	zero,0x9
    16e8:	0402                	c.slli64	s0
    16ea:	0602                	c.slli64	a2
    16ec:	04097e03          	.insn	4, 0x04097e03
    16f0:	0100                	addi	s0,sp,128
    16f2:	1505                	addi	a0,a0,-31
    16f4:	0200                	addi	s0,sp,256
    16f6:	0104                	addi	s1,sp,128
    16f8:	00090003          	lb	zero,0(s2)
    16fc:	0100                	addi	s0,sp,128
    16fe:	0505                	addi	a0,a0,1
    1700:	00090103          	lb	sp,0(s2)
    1704:	0100                	addi	s0,sp,128
    1706:	1105                	addi	sp,sp,-31
    1708:	0306                	slli	t1,t1,0x1
    170a:	0900                	addi	s0,sp,144
    170c:	0000                	unimp
    170e:	0501                	addi	a0,a0,0
    1710:	0308                	addi	a0,sp,384
    1712:	0900                	addi	s0,sp,144
    1714:	0004                	.insn	2, 0x0004
    1716:	0501                	addi	a0,a0,0
    1718:	0601                	addi	a2,a2,0
    171a:	0902bf03          	ld	t5,144(t0)
    171e:	0004                	.insn	2, 0x0004
    1720:	0501                	addi	a0,a0,0
    1722:	09010303          	lb	t1,144(sp)
    1726:	0000                	unimp
    1728:	0301                	addi	t1,t1,0
    172a:	0902                	c.slli64	s2
    172c:	0000                	unimp
    172e:	0501                	addi	a0,a0,0
    1730:	0305                	addi	t1,t1,1
    1732:	0901                	addi	s2,s2,0
    1734:	0000                	unimp
    1736:	0501                	addi	a0,a0,0
    1738:	060d                	addi	a2,a2,3
    173a:	00090003          	lb	zero,0(s2)
    173e:	0100                	addi	s0,sp,128
    1740:	0805                	addi	a6,a6,1
    1742:	02090003          	lb	zero,32(s2)
    1746:	0100                	addi	s0,sp,128
    1748:	0505                	addi	a0,a0,1
    174a:	0306                	slli	t1,t1,0x1
    174c:	0901                	addi	s2,s2,0
    174e:	0004                	.insn	2, 0x0004
    1750:	0501                	addi	a0,a0,0
    1752:	060d                	addi	a2,a2,3
    1754:	00090003          	lb	zero,0(s2)
    1758:	0100                	addi	s0,sp,128
    175a:	0805                	addi	a6,a6,1
    175c:	02090003          	lb	zero,32(s2)
    1760:	0100                	addi	s0,sp,128
    1762:	1405                	addi	s0,s0,-31
    1764:	0200                	addi	s0,sp,256
    1766:	0204                	addi	s1,sp,256
    1768:	0306                	slli	t1,t1,0x1
    176a:	0901                	addi	s2,s2,0
    176c:	0004                	.insn	2, 0x0004
    176e:	0001                	nop
    1770:	0402                	c.slli64	s0
    1772:	0601                	addi	a2,a2,0
    1774:	02090003          	lb	zero,32(s2)
    1778:	0100                	addi	s0,sp,128
    177a:	0305                	addi	t1,t1,1
    177c:	0306                	slli	t1,t1,0x1
    177e:	0902                	c.slli64	s2
    1780:	0004                	.insn	2, 0x0004
    1782:	0501                	addi	a0,a0,0
    1784:	0601                	addi	a2,a2,0
    1786:	00090103          	lb	sp,0(s2)
    178a:	0100                	addi	s0,sp,128
    178c:	0306                	slli	t1,t1,0x1
    178e:	00060903          	lb	s2,0(a2)
    1792:	0501                	addi	a0,a0,0
    1794:	09010303          	lb	t1,144(sp)
    1798:	0000                	unimp
    179a:	0301                	addi	t1,t1,0
    179c:	0901                	addi	s2,s2,0
    179e:	0000                	unimp
    17a0:	0501                	addi	a0,a0,0
    17a2:	0609                	addi	a2,a2,2
    17a4:	00097f03          	.insn	4, 0x00097f03
    17a8:	0100                	addi	s0,sp,128
    17aa:	0a05                	addi	s4,s4,1
    17ac:	0200                	addi	s0,sp,256
    17ae:	0104                	addi	s1,sp,128
    17b0:	0306                	slli	t1,t1,0x1
    17b2:	0901                	addi	s2,s2,0
    17b4:	0002                	c.slli64	zero
    17b6:	0501                	addi	a0,a0,0
    17b8:	0016                	c.slli	zero,0x5
    17ba:	0402                	c.slli64	s0
    17bc:	0601                	addi	a2,a2,0
    17be:	00090003          	lb	zero,0(s2)
    17c2:	0100                	addi	s0,sp,128
    17c4:	0d05                	addi	s10,s10,1
    17c6:	0200                	addi	s0,sp,256
    17c8:	0104                	addi	s1,sp,128
    17ca:	02090003          	lb	zero,32(s2)
    17ce:	0100                	addi	s0,sp,128
    17d0:	1205                	addi	tp,tp,-31 # ffffffffffffffe1 <__global_pointer$+0xffffffff7fffe799>
    17d2:	0200                	addi	s0,sp,256
    17d4:	0104                	addi	s1,sp,128
    17d6:	02090003          	lb	zero,32(s2)
    17da:	0100                	addi	s0,sp,128
    17dc:	1005                	c.nop	-31
    17de:	0200                	addi	s0,sp,256
    17e0:	0104                	addi	s1,sp,128
    17e2:	04090003          	lb	zero,64(s2)
    17e6:	0100                	addi	s0,sp,128
    17e8:	0a05                	addi	s4,s4,1
    17ea:	0200                	addi	s0,sp,256
    17ec:	0104                	addi	s1,sp,128
    17ee:	04090003          	lb	zero,64(s2)
    17f2:	0100                	addi	s0,sp,128
    17f4:	0305                	addi	t1,t1,1
    17f6:	0306                	slli	t1,t1,0x1
    17f8:	0902                	c.slli64	s2
    17fa:	0002                	c.slli64	zero
    17fc:	0501                	addi	a0,a0,0
    17fe:	0601                	addi	a2,a2,0
    1800:	00090103          	lb	sp,0(s2)
    1804:	0100                	addi	s0,sp,128
    1806:	0306                	slli	t1,t1,0x1
    1808:	00020903          	lb	s2,0(tp) # 0 <_start-0x80000000>
    180c:	0501                	addi	a0,a0,0
    180e:	09010303          	lb	t1,144(sp)
    1812:	0000                	unimp
    1814:	0301                	addi	t1,t1,0
    1816:	0901                	addi	s2,s2,0
    1818:	0000                	unimp
    181a:	0301                	addi	t1,t1,0
    181c:	0902                	c.slli64	s2
    181e:	0000                	unimp
    1820:	0501                	addi	a0,a0,0
    1822:	0900030f          	.insn	4, 0x0900030f
    1826:	0000                	unimp
    1828:	0501                	addi	a0,a0,0
    182a:	060a                	slli	a2,a2,0x2
    182c:	00090003          	lb	zero,0(s2)
    1830:	0100                	addi	s0,sp,128
    1832:	0f05                	addi	t5,t5,1
    1834:	04090003          	lb	zero,64(s2)
    1838:	0100                	addi	s0,sp,128
    183a:	0505                	addi	a0,a0,1
    183c:	0306                	slli	t1,t1,0x1
    183e:	0901                	addi	s2,s2,0
    1840:	0008                	.insn	2, 0x0008
    1842:	0501                	addi	a0,a0,0
    1844:	0608                	addi	a0,sp,768
    1846:	00090003          	lb	zero,0(s2)
    184a:	0100                	addi	s0,sp,128
    184c:	0f05                	addi	t5,t5,1
    184e:	0306                	slli	t1,t1,0x1
    1850:	097f 0002 0501 060a 	.insn	10, 0x0003060a05010002097f
    1858:	0003 
    185a:	0009                	c.nop	2
    185c:	0100                	addi	s0,sp,128
    185e:	0f05                	addi	t5,t5,1
    1860:	04090003          	lb	zero,64(s2)
    1864:	0100                	addi	s0,sp,128
    1866:	0305                	addi	t1,t1,1
    1868:	0306                	slli	t1,t1,0x1
    186a:	00040903          	lb	s2,0(s0)
    186e:	0501                	addi	a0,a0,0
    1870:	0606                	slli	a2,a2,0x1
    1872:	00090003          	lb	zero,0(s2)
    1876:	0100                	addi	s0,sp,128
    1878:	0a05                	addi	s4,s4,1
    187a:	0306                	slli	t1,t1,0x1
    187c:	0905                	addi	s2,s2,1
    187e:	000a                	c.slli	zero,0x2
    1880:	0501                	addi	a0,a0,0
    1882:	76030607          	.insn	4, 0x76030607
    1886:	0609                	addi	a2,a2,2
    1888:	0100                	addi	s0,sp,128
    188a:	0a05                	addi	s4,s4,1
    188c:	02090a03          	lb	s4,32(s2)
    1890:	0100                	addi	s0,sp,128
    1892:	0105                	addi	sp,sp,1
    1894:	04090603          	lb	a2,64(s2)
    1898:	0100                	addi	s0,sp,128
    189a:	0505                	addi	a0,a0,1
    189c:	0306                	slli	t1,t1,0x1
    189e:	0976                	slli	s2,s2,0x1d
    18a0:	0002                	c.slli64	zero
    18a2:	0501                	addi	a0,a0,0
    18a4:	0611                	addi	a2,a2,4
    18a6:	00090003          	lb	zero,0(s2)
    18aa:	0100                	addi	s0,sp,128
    18ac:	0a05                	addi	s4,s4,1
    18ae:	04090003          	lb	zero,64(s2)
    18b2:	0100                	addi	s0,sp,128
    18b4:	0505                	addi	a0,a0,1
    18b6:	0306                	slli	t1,t1,0x1
    18b8:	0901                	addi	s2,s2,0
    18ba:	0004                	.insn	2, 0x0004
    18bc:	0501                	addi	a0,a0,0
    18be:	0608                	addi	a0,sp,768
    18c0:	00090003          	lb	zero,0(s2)
    18c4:	0100                	addi	s0,sp,128
    18c6:	0a05                	addi	s4,s4,1
    18c8:	0306                	slli	t1,t1,0x1
    18ca:	00040903          	lb	s2,0(s0)
    18ce:	0501                	addi	a0,a0,0
    18d0:	76030607          	.insn	4, 0x76030607
    18d4:	0609                	addi	a2,a2,2
    18d6:	0100                	addi	s0,sp,128
    18d8:	0505                	addi	a0,a0,1
    18da:	0306                	slli	t1,t1,0x1
    18dc:	0002090b          	.insn	4, 0x0002090b
    18e0:	0501                	addi	a0,a0,0
    18e2:	0609                	addi	a2,a2,2
    18e4:	00090003          	lb	zero,0(s2)
    18e8:	0100                	addi	s0,sp,128
    18ea:	0505                	addi	a0,a0,1
    18ec:	0306                	slli	t1,t1,0x1
    18ee:	0901                	addi	s2,s2,0
    18f0:	0008                	.insn	2, 0x0008
    18f2:	0501                	addi	a0,a0,0
    18f4:	0610                	addi	a2,sp,768
    18f6:	00090003          	lb	zero,0(s2)
    18fa:	0100                	addi	s0,sp,128
    18fc:	1305                	addi	t1,t1,-31
    18fe:	02090003          	lb	zero,32(s2)
    1902:	0100                	addi	s0,sp,128
    1904:	0905                	addi	s2,s2,1
    1906:	04090003          	lb	zero,64(s2)
    190a:	0100                	addi	s0,sp,128
    190c:	0a05                	addi	s4,s4,1
    190e:	0306                	slli	t1,t1,0x1
    1910:	097e                	slli	s2,s2,0x1f
    1912:	0004                	.insn	2, 0x0004
    1914:	0501                	addi	a0,a0,0
    1916:	09050303          	lb	t1,144(a0)
    191a:	0006                	c.slli	zero,0x1
    191c:	0501                	addi	a0,a0,0
    191e:	0616                	slli	a2,a2,0x5
    1920:	00090003          	lb	zero,0(s2)
    1924:	0100                	addi	s0,sp,128
    1926:	0200                	addi	s0,sp,256
    1928:	0104                	addi	s1,sp,128
    192a:	02090003          	lb	zero,32(s2)
    192e:	0100                	addi	s0,sp,128
    1930:	04090003          	lb	zero,64(s2)
    1934:	0100                	addi	s0,sp,128
    1936:	0a05                	addi	s4,s4,1
    1938:	02097b03          	.insn	4, 0x02097b03
    193c:	0100                	addi	s0,sp,128
    193e:	0409                	addi	s0,s0,2
    1940:	0000                	unimp
    1942:	0101                	addi	sp,sp,0

Disassembly of section .debug_info:

0000000000000000 <.debug_info>:
       0:	002a                	c.slli	zero,0xa
       2:	0000                	unimp
       4:	0002                	c.slli64	zero
       6:	0000                	unimp
       8:	0000                	unimp
       a:	0108                	addi	a0,sp,128
       c:	0000                	unimp
       e:	0000                	unimp
      10:	01c2                	slli	gp,gp,0x10
      12:	8000                	.insn	2, 0x8000
      14:	0000                	unimp
      16:	0000                	unimp
      18:	0200                	addi	s0,sp,256
      1a:	8000                	.insn	2, 0x8000
	...
      24:	00000007          	.insn	4, 0x0007
      28:	0030                	addi	a2,sp,8
      2a:	0000                	unimp
      2c:	8001                	c.srli64	s0
      2e:	002a                	c.slli	zero,0xa
      30:	0000                	unimp
      32:	0002                	c.slli64	zero
      34:	0014                	.insn	2, 0x0014
      36:	0000                	unimp
      38:	0108                	addi	a0,sp,128
      3a:	00b6                	slli	ra,ra,0xd
      3c:	0000                	unimp
      3e:	0000                	unimp
      40:	8000                	.insn	2, 0x8000
      42:	0000                	unimp
      44:	0000                	unimp
      46:	01c0                	addi	s0,sp,196
      48:	8000                	.insn	2, 0x8000
      4a:	0000                	unimp
      4c:	0000                	unimp
      4e:	003e                	c.slli	zero,0xf
      50:	0000                	unimp
      52:	00000007          	.insn	4, 0x0007
      56:	0030                	addi	a2,sp,8
      58:	0000                	unimp
      5a:	8001                	c.srli64	s0
      5c:	1284                	addi	s1,sp,352
      5e:	0000                	unimp
      60:	0002                	c.slli64	zero
      62:	0028                	addi	a0,sp,8
      64:	0000                	unimp
      66:	0108                	addi	a0,sp,128
      68:	01dd                	addi	gp,gp,23 # 60912f1 <_start-0x79f6ed0f>
      6a:	0000                	unimp
      6c:	670c                	ld	a1,8(a4)
      6e:	07000003          	lb	zero,112(zero) # 70 <_start-0x7fffff90>
      72:	0000                	unimp
      74:	0000                	unimp
      76:	0002                	c.slli64	zero
      78:	0080                	addi	s0,sp,64
      7a:	0000                	unimp
      7c:	c000                	sw	s0,0(s0)
      7e:	0008                	.insn	2, 0x0008
      80:	0080                	addi	s0,sp,64
      82:	0000                	unimp
      84:	b100                	fsd	fs0,32(a0)
      86:	0004                	.insn	2, 0x0004
      88:	0200                	addi	s0,sp,256
      8a:	0601                	addi	a2,a2,0
      8c:	0300                	addi	s0,sp,384
      8e:	0000                	unimp
      90:	00007203          	.insn	4, 0x7203
      94:	0200                	addi	s0,sp,256
      96:	0040182b          	.insn	4, 0x0040182b
      9a:	0000                	unimp
      9c:	0102                	c.slli64	sp
      9e:	fe08                	sd	a0,56(a2)
      a0:	0002                	c.slli64	zero
      a2:	0200                	addi	s0,sp,256
      a4:	0502                	c.slli64	a0
      a6:	00000313          	li	t1,0
      aa:	0202                	c.slli64	tp
      ac:	0001b207          	fld	ft4,0(gp) # 80001848 <__global_pointer$>
      b0:	0400                	addi	s0,sp,512
      b2:	0504                	addi	s1,sp,640
      b4:	6e69                	lui	t3,0x1a
      b6:	0074                	addi	a3,sp,12
      b8:	0402                	c.slli64	s0
      ba:	0000a307          	flw	ft6,0(ra)
      be:	0200                	addi	s0,sp,256
      c0:	0508                	addi	a0,sp,640
      c2:	00cc                	addi	a1,sp,68
      c4:	0000                	unimp
      c6:	0002e703          	lwu	a4,0(t0)
      ca:	0200                	addi	s0,sp,256
      cc:	1969                	addi	s2,s2,-6
      ce:	0076                	c.slli	zero,0x1d
      d0:	0000                	unimp
      d2:	0802                	c.slli64	a6
      d4:	00009e07          	.insn	4, 0x9e07
      d8:	0300                	addi	s0,sp,384
      da:	0334                	addi	a3,sp,392
      dc:	0000                	unimp
      de:	e802                	sd	zero,16(sp)
      e0:	761a                	ld	a2,416(sp)
      e2:	0000                	unimp
      e4:	0300                	addi	s0,sp,384
      e6:	0074                	addi	a3,sp,12
      e8:	0000                	unimp
      ea:	34131803          	lh	a6,833(t1)
      ee:	0000                	unimp
      f0:	0500                	addi	s0,sp,640
      f2:	0089                	addi	ra,ra,2
      f4:	0000                	unimp
      f6:	0002e903          	lwu	s2,0(t0)
      fa:	0300                	addi	s0,sp,384
      fc:	143c                	addi	a5,sp,552
      fe:	006a                	c.slli	zero,0x1a
     100:	0000                	unimp
     102:	9a05                	andi	a2,a2,-31
     104:	0000                	unimp
     106:	0300                	addi	s0,sp,384
     108:	0336                	slli	t1,t1,0xd
     10a:	0000                	unimp
     10c:	7d155203          	lhu	tp,2001(a0)
     110:	0000                	unimp
     112:	0600                	addi	s0,sp,768
     114:	000000ab          	.insn	4, 0x00ab
     118:	00006103          	lwu	sp,0(zero) # 0 <_start-0x80000000>
     11c:	0400                	addi	s0,sp,512
     11e:	17d6                	slli	a5,a5,0x35
     120:	0076                	c.slli	zero,0x1d
     122:	0000                	unimp
     124:	0802                	c.slli64	a6
     126:	c705                	beqz	a4,14e <_start-0x7ffffeb2>
     128:	0000                	unimp
     12a:	0200                	addi	s0,sp,256
     12c:	0410                	addi	a2,sp,512
     12e:	028e                	slli	t0,t0,0x3
     130:	0000                	unimp
     132:	08080807          	.insn	4, 0x08080807
     136:	0105                	addi	sp,sp,1
     138:	0000                	unimp
     13a:	0809                	addi	a6,a6,2
     13c:	00e4                	addi	s1,sp,76
     13e:	0000                	unimp
     140:	0102                	c.slli64	sp
     142:	0708                	addi	a0,sp,896
     144:	06000003          	lb	zero,96(zero) # 60 <_start-0x7fffffa0>
     148:	00e4                	addi	s1,sp,76
     14a:	0000                	unimp
     14c:	0809                	addi	a6,a6,2
     14e:	000000eb          	.insn	4, 0x00eb
     152:	0802                	c.slli64	a6
     154:	00009907          	.insn	4, 0x9907
     158:	0300                	addi	s0,sp,384
     15a:	02b5                	addi	t0,t0,13
     15c:	0000                	unimp
     15e:	2805                	addiw	a6,a6,1
     160:	0000d81b          	srliw	a6,ra,0x0
     164:	0300                	addi	s0,sp,384
     166:	02bc                	addi	a5,sp,328
     168:	0000                	unimp
     16a:	6705                	lui	a4,0x1
     16c:	fd18                	sd	a4,56(a0)
     16e:	0000                	unimp
     170:	0a00                	addi	s0,sp,272
     172:	030c                	addi	a1,sp,384
     174:	0000                	unimp
     176:	0f01                	addi	t5,t5,0
     178:	a61a                	fsd	ft6,264(sp)
     17a:	0000                	unimp
     17c:	0100                	addi	s0,sp,128
     17e:	0b01                	addi	s6,s6,0
     180:	000000ab          	.insn	4, 0x00ab
     184:	00000133          	add	sp,zero,zero
     188:	760c                	ld	a1,40(a2)
     18a:	0000                	unimp
     18c:	0100                	addi	s0,sp,128
     18e:	0d00                	addi	s0,sp,656
     190:	0000027b          	.insn	4, 0x027b
     194:	4b01                	li	s6,0
     196:	2312                	fld	ft6,256(sp)
     198:	0001                	nop
     19a:	0900                	addi	s0,sp,144
     19c:	00104803          	lbu	a6,1(zero) # 1 <_start-0x7fffffff>
     1a0:	0080                	addi	s0,sp,64
     1a2:	0000                	unimp
     1a4:	0b00                	addi	s0,sp,400
     1a6:	00de                	slli	ra,ra,0x17
     1a8:	0000                	unimp
     1aa:	0159                	addi	sp,sp,22
     1ac:	0000                	unimp
     1ae:	760c                	ld	a1,40(a2)
     1b0:	0000                	unimp
     1b2:	0100                	addi	s0,sp,128
     1b4:	0d00                	addi	s0,sp,656
     1b6:	031d                	addi	t1,t1,7
     1b8:	0000                	unimp
     1ba:	4c01                	li	s8,0
     1bc:	490e                	lw	s2,192(sp)
     1be:	0001                	nop
     1c0:	0900                	addi	s0,sp,144
     1c2:	00105803          	lhu	a6,1(zero) # 1 <_start-0x7fffffff>
     1c6:	0080                	addi	s0,sp,64
     1c8:	0000                	unimp
     1ca:	0e00                	addi	s0,sp,784
     1cc:	f901                	bnez	a0,dc <_start-0x7fffff24>
     1ce:	0002                	c.slli64	zero
     1d0:	0100                	addi	s0,sp,128
     1d2:	01fa                	slli	gp,gp,0x1e
     1d4:	0106                	slli	sp,sp,0x1
     1d6:	00000063          	beqz	zero,1d6 <_start-0x7ffffe2a>
     1da:	085a                	slli	a6,a6,0x16
     1dc:	8000                	.insn	2, 0x8000
     1de:	0000                	unimp
     1e0:	0000                	unimp
     1e2:	08c0                	addi	s0,sp,84
     1e4:	8000                	.insn	2, 0x8000
     1e6:	0000                	unimp
     1e8:	0000                	unimp
     1ea:	7202                	ld	tp,32(sp)
     1ec:	0100                	addi	s0,sp,128
     1ee:	01ca                	slli	gp,gp,0x12
     1f0:	0000                	unimp
     1f2:	7274730f          	.insn	4, 0x7274730f
     1f6:	0100                	addi	s0,sp,128
     1f8:	01fa                	slli	gp,gp,0x1e
     1fa:	0000f017          	auipc	zero,0xf
     1fe:	0000                	unimp
     200:	0000                	unimp
     202:	1000                	addi	s0,sp,32
     204:	6572                	ld	a0,280(sp)
     206:	fc010073          	.insn	4, 0xfc010073
     20a:	0801                	addi	a6,a6,0
     20c:	00000063          	beqz	zero,20c <_start-0x7ffffdf4>
     210:	0000006f          	j	210 <_start-0x7ffffdf0>
     214:	a911                	j	628 <_start-0x7ffff9d8>
     216:	01000003          	lb	zero,16(zero) # 10 <_start-0x7ffffff0>
     21a:	01fd                	addi	gp,gp,31 # 80001867 <__global_pointer$+0x1f>
     21c:	00005507          	.insn	4, 0x5507
     220:	f400                	sd	s0,40(s0)
     222:	0000                	unimp
     224:	0000                	unimp
     226:	0112                	slli	sp,sp,0x4
     228:	01c5                	addi	gp,gp,17 # 80001859 <__global_pointer$+0x11>
     22a:	0000                	unimp
     22c:	2606                	fld	fa2,64(sp)
     22e:	0108                	addi	a0,sp,128
     230:	00de                	slli	ra,ra,0x17
     232:	0000                	unimp
     234:	0848                	addi	a0,sp,20
     236:	8000                	.insn	2, 0x8000
     238:	0000                	unimp
     23a:	0000                	unimp
     23c:	085a                	slli	a6,a6,0x16
     23e:	8000                	.insn	2, 0x8000
     240:	0000                	unimp
     242:	0000                	unimp
     244:	7202                	ld	tp,32(sp)
     246:	0100                	addi	s0,sp,128
     248:	0220                	addi	s0,sp,264
     24a:	0000                	unimp
     24c:	0002d813          	srli	a6,t0,0x0
     250:	0100                	addi	s0,sp,128
     252:	01f2                	slli	gp,gp,0x1c
     254:	de14                	sw	a3,56(a2)
     256:	0000                	unimp
     258:	0100                	addi	s0,sp,128
     25a:	0f5a                	slli	t5,t5,0x16
     25c:	00637273          	csrrci	tp,0x6,6
     260:	f201                	bnez	a2,160 <_start-0x7ffffea0>
     262:	2601                	sext.w	a2,a2
     264:	00f0                	addi	a2,sp,76
     266:	0000                	unimp
     268:	016d                	addi	sp,sp,27
     26a:	0000                	unimp
     26c:	6410                	ld	a2,8(s0)
     26e:	0100                	addi	s0,sp,128
     270:	01f4                	addi	a3,sp,204
     272:	de09                	beqz	a2,18c <_start-0x7ffffe74>
     274:	0000                	unimp
     276:	a300                	fsd	fs0,0(a4)
     278:	0001                	nop
     27a:	0000                	unimp
     27c:	0112                	slli	sp,sp,0x4
     27e:	0055                	c.nop	21
     280:	0000                	unimp
     282:	2406                	fld	fs0,64(sp)
     284:	0106                	slli	sp,sp,0x1
     286:	0055                	c.nop	21
     288:	0000                	unimp
     28a:	0830                	addi	a2,sp,24
     28c:	8000                	.insn	2, 0x8000
     28e:	0000                	unimp
     290:	0000                	unimp
     292:	0848                	addi	a0,sp,20
     294:	8000                	.insn	2, 0x8000
     296:	0000                	unimp
     298:	0000                	unimp
     29a:	7202                	ld	tp,32(sp)
     29c:	0100                	addi	s0,sp,128
     29e:	00000283          	lb	t0,0(zero) # 0 <_start-0x80000000>
     2a2:	0031730f          	.insn	4, 0x0031730f
     2a6:	e601                	bnez	a2,2ae <_start-0x7ffffd52>
     2a8:	1801                	addi	a6,a6,-32
     2aa:	00f0                	addi	a2,sp,76
     2ac:	0000                	unimp
     2ae:	01d9                	addi	gp,gp,22 # 8000185e <__global_pointer$+0x16>
     2b0:	0000                	unimp
     2b2:	0032730f          	.insn	4, 0x0032730f
     2b6:	e601                	bnez	a2,2be <_start-0x7ffffd42>
     2b8:	2801                	sext.w	a6,a6
     2ba:	00f0                	addi	a2,sp,76
     2bc:	0000                	unimp
     2be:	023d                	addi	tp,tp,15 # f <_start-0x7ffffff1>
     2c0:	0000                	unimp
     2c2:	6314                	ld	a3,0(a4)
     2c4:	0031                	c.nop	12
     2c6:	e801                	bnez	s0,2d6 <_start-0x7ffffd2a>
     2c8:	1101                	addi	sp,sp,-32
     2ca:	0040                	addi	s0,sp,4
     2cc:	0000                	unimp
     2ce:	5f01                	li	t5,-32
     2d0:	6314                	ld	a3,0(a4)
     2d2:	0032                	c.slli	zero,0xc
     2d4:	e801                	bnez	s0,2e4 <_start-0x7ffffd1c>
     2d6:	1501                	addi	a0,a0,-32
     2d8:	0040                	addi	s0,sp,4
     2da:	0000                	unimp
     2dc:	5e01                	li	t3,-32
     2de:	1200                	addi	s0,sp,288
     2e0:	c601                	beqz	a2,2e8 <_start-0x7ffffd18>
     2e2:	06000003          	lb	zero,96(zero) # 60 <_start-0x7fffffa0>
     2e6:	bc010977          	.insn	4, 0xbc010977
     2ea:	0000                	unimp
     2ec:	2400                	fld	fs0,8(s0)
     2ee:	0004                	.insn	2, 0x0004
     2f0:	0080                	addi	s0,sp,64
     2f2:	0000                	unimp
     2f4:	4200                	lw	s0,0(a2)
     2f6:	0004                	.insn	2, 0x0004
     2f8:	0080                	addi	s0,sp,64
     2fa:	0000                	unimp
     2fc:	0200                	addi	s0,sp,256
     2fe:	0072                	c.slli	zero,0x1c
     300:	d701                	beqz	a4,208 <_start-0x7ffffdf8>
     302:	0002                	c.slli64	zero
     304:	0f00                	addi	s0,sp,912
     306:	de010073          	.insn	4, 0xde010073
     30a:	1c01                	addi	s8,s8,-32
     30c:	00f0                	addi	a2,sp,76
     30e:	0000                	unimp
     310:	0289                	addi	t0,t0,2
     312:	0000                	unimp
     314:	01006e0f          	.insn	4, 0x01006e0f
     318:	01de                	slli	gp,gp,0x17
     31a:	bc26                	fsd	fs1,56(sp)
     31c:	0000                	unimp
     31e:	d500                	sw	s0,40(a0)
     320:	0002                	c.slli64	zero
     322:	1000                	addi	s0,sp,32
     324:	0070                	addi	a2,sp,12
     326:	e001                	bnez	s0,326 <_start-0x7ffffcda>
     328:	0f01                	addi	t5,t5,0
     32a:	00f0                	addi	a2,sp,76
     32c:	0000                	unimp
     32e:	00000357          	.insn	4, 0x0357
     332:	1200                	addi	s0,sp,288
     334:	7801                	lui	a6,0xfffe0
     336:	0001                	nop
     338:	0600                	addi	s0,sp,768
     33a:	0929                	addi	s2,s2,10
     33c:	bc01                	j	fffffffffffffd4c <__global_pointer$+0xffffffff7fffe504>
     33e:	0000                	unimp
     340:	0a00                	addi	s0,sp,272
     342:	0004                	.insn	2, 0x0004
     344:	0080                	addi	s0,sp,64
     346:	0000                	unimp
     348:	2400                	fld	fs0,8(s0)
     34a:	0004                	.insn	2, 0x0004
     34c:	0080                	addi	s0,sp,64
     34e:	0000                	unimp
     350:	0200                	addi	s0,sp,256
     352:	0072                	c.slli	zero,0x1c
     354:	1c01                	addi	s8,s8,-32
     356:	0f000003          	lb	zero,240(zero) # f0 <_start-0x7fffff10>
     35a:	d6010073          	.insn	4, 0xd6010073
     35e:	1b01                	addi	s6,s6,-32
     360:	00f0                	addi	a2,sp,76
     362:	0000                	unimp
     364:	03a0                	addi	s0,sp,456
     366:	0000                	unimp
     368:	7010                	ld	a2,32(s0)
     36a:	0100                	addi	s0,sp,128
     36c:	01d8                	addi	a4,sp,196
     36e:	0000f00f          	.insn	4, 0xf00f
     372:	ec00                	sd	s0,24(s0)
     374:	00000003          	lb	zero,0(zero) # 0 <_start-0x80000000>
     378:	0112                	slli	sp,sp,0x4
     37a:	0092                	slli	ra,ra,0x4
     37c:	0000                	unimp
     37e:	2106                	fld	ft2,64(sp)
     380:	0109                	addi	sp,sp,2
     382:	00d6                	slli	ra,ra,0x15
     384:	0000                	unimp
     386:	03c2                	slli	t2,t2,0x10
     388:	8000                	.insn	2, 0x8000
     38a:	0000                	unimp
     38c:	0000                	unimp
     38e:	040a                	slli	s0,s0,0x2
     390:	8000                	.insn	2, 0x8000
     392:	0000                	unimp
     394:	0000                	unimp
     396:	7202                	ld	tp,32(sp)
     398:	0100                	addi	s0,sp,128
     39a:	000003cb          	fnmsub.s	ft7,ft0,ft0,ft0,rne
     39e:	0002d813          	srli	a6,t0,0x0
     3a2:	0100                	addi	s0,sp,128
     3a4:	d61401c3          	.insn	4, 0xd61401c3
     3a8:	0000                	unimp
     3aa:	0100                	addi	s0,sp,128
     3ac:	155a                	slli	a0,a0,0x36
     3ae:	0152                	slli	sp,sp,0x14
     3b0:	0000                	unimp
     3b2:	c301                	beqz	a4,3b2 <_start-0x7ffffc4e>
     3b4:	1e01                	addi	t3,t3,-32 # 19fe0 <_start-0x7ffe6020>
     3b6:	0055                	c.nop	21
     3b8:	0000                	unimp
     3ba:	0435                	addi	s0,s0,13
     3bc:	0000                	unimp
     3be:	6e656c0f          	.insn	4, 0x6e656c0f
     3c2:	0100                	addi	s0,sp,128
     3c4:	bc2b01c3          	.insn	4, 0xbc2b01c3
     3c8:	0000                	unimp
     3ca:	9700                	.insn	2, 0x9700
     3cc:	0004                	.insn	2, 0x0004
     3ce:	1600                	addi	s0,sp,800
     3d0:	03e0                	addi	s0,sp,460
     3d2:	8000                	.insn	2, 0x8000
     3d4:	0000                	unimp
     3d6:	0000                	unimp
     3d8:	040a                	slli	s0,s0,0x2
     3da:	8000                	.insn	2, 0x8000
     3dc:	0000                	unimp
     3de:	0000                	unimp
     3e0:	03a9                	addi	t2,t2,10
     3e2:	0000                	unimp
     3e4:	c411                	beqz	s0,3f0 <_start-0x7ffffc10>
     3e6:	0002                	c.slli64	zero
     3e8:	0100                	addi	s0,sp,128
     3ea:	01c6                	slli	gp,gp,0x11
     3ec:	0000ab0f          	.insn	4, 0xab0f
     3f0:	f900                	sd	s0,48(a0)
     3f2:	0004                	.insn	2, 0x0004
     3f4:	1000                	addi	s0,sp,32
     3f6:	0064                	addi	s1,sp,12
     3f8:	cb01                	beqz	a4,408 <_start-0x7ffffbf8>
     3fa:	1001                	c.nop	-32
     3fc:	000003cb          	fnmsub.s	ft7,ft0,ft0,ft0,rne
     400:	0565                	addi	a0,a0,25
     402:	0000                	unimp
     404:	1700                	addi	s0,sp,928
     406:	03ca                	slli	t2,t2,0x12
     408:	8000                	.insn	2, 0x8000
     40a:	0000                	unimp
     40c:	0000                	unimp
     40e:	03dc                	addi	a5,sp,452
     410:	8000                	.insn	2, 0x8000
     412:	0000                	unimp
     414:	0000                	unimp
     416:	6410                	ld	a2,8(s0)
     418:	0100                	addi	s0,sp,128
     41a:	de0b01cf          	.insn	4, 0xde0b01cf
     41e:	0000                	unimp
     420:	9b00                	.insn	2, 0x9b00
     422:	0005                	c.nop	1
     424:	0000                	unimp
     426:	0900                	addi	s0,sp,144
     428:	ab08                	fsd	fa0,16(a4)
     42a:	0000                	unimp
     42c:	1200                	addi	s0,sp,288
     42e:	d601                	beqz	a2,336 <_start-0x7ffffcca>
     430:	0001                	nop
     432:	0600                	addi	s0,sp,768
     434:	091f d601 0000      	.insn	6, 0xd601091f
     43a:	7e00                	ld	s0,56(a2)
     43c:	00800003          	lb	zero,8(zero) # 8 <_start-0x7ffffff8>
     440:	0000                	unimp
     442:	c200                	sw	s0,0(a2)
     444:	00800003          	lb	zero,8(zero) # 8 <_start-0x7ffffff8>
     448:	0000                	unimp
     44a:	0200                	addi	s0,sp,256
     44c:	0072                	c.slli	zero,0x1c
     44e:	8b01                	andi	a4,a4,0
     450:	0004                	.insn	2, 0x0004
     452:	1300                	addi	s0,sp,416
     454:	02d8                	addi	a4,sp,324
     456:	0000                	unimp
     458:	b301                	j	158 <_start-0x7ffffea8>
     45a:	1401                	addi	s0,s0,-32
     45c:	00d6                	slli	ra,ra,0x15
     45e:	0000                	unimp
     460:	5a01                	li	s4,-32
     462:	6372730f          	.insn	4, 0x6372730f
     466:	0100                	addi	s0,sp,128
     468:	8b2601b3          	.insn	4, 0x8b2601b3
     46c:	0004                	.insn	2, 0x0004
     46e:	e400                	sd	s0,8(s0)
     470:	0005                	c.nop	1
     472:	0f00                	addi	s0,sp,912
     474:	656c                	ld	a1,200(a0)
     476:	006e                	c.slli	zero,0x1b
     478:	b301                	j	178 <_start-0x7ffffe88>
     47a:	3201                	addiw	tp,tp,-32 # ffffffffffffffe0 <__global_pointer$+0xffffffff7fffe798>
     47c:	00bc                	addi	a5,sp,72
     47e:	0000                	unimp
     480:	0646                	slli	a2,a2,0x11
     482:	0000                	unimp
     484:	a816                	fsd	ft5,16(sp)
     486:	00800003          	lb	zero,8(zero) # 8 <_start-0x7ffffff8>
     48a:	0000                	unimp
     48c:	c200                	sw	s0,0(a2)
     48e:	00800003          	lb	zero,8(zero) # 8 <_start-0x7ffffff8>
     492:	0000                	unimp
     494:	5a00                	lw	s0,48(a2)
     496:	0004                	.insn	2, 0x0004
     498:	1400                	addi	s0,sp,544
     49a:	b6010073          	.insn	4, 0xb6010073
     49e:	1601                	addi	a2,a2,-32
     4a0:	0492                	slli	s1,s1,0x4
     4a2:	0000                	unimp
     4a4:	5b01                	li	s6,-32
     4a6:	6410                	ld	a2,8(s0)
     4a8:	0100                	addi	s0,sp,128
     4aa:	cb1001b7          	lui	gp,0xcb100
     4ae:	a8000003          	lb	zero,-1408(zero) # fffffffffffffa80 <__global_pointer$+0xffffffff7fffe238>
     4b2:	0006                	c.slli	zero,0x1
     4b4:	0000                	unimp
     4b6:	00038817          	auipc	a6,0x38
     4ba:	0080                	addi	s0,sp,64
     4bc:	0000                	unimp
     4be:	a400                	fsd	fs0,8(s0)
     4c0:	00800003          	lb	zero,8(zero) # 8 <_start-0x7ffffff8>
     4c4:	0000                	unimp
     4c6:	1000                	addi	s0,sp,32
     4c8:	bb010073          	.insn	4, 0xbb010073
     4cc:	1101                	addi	sp,sp,-32
     4ce:	00f0                	addi	a2,sp,76
     4d0:	0000                	unimp
     4d2:	06de                	slli	a3,a3,0x17
     4d4:	0000                	unimp
     4d6:	6410                	ld	a2,8(s0)
     4d8:	0100                	addi	s0,sp,128
     4da:	01bc                	addi	a5,sp,200
     4dc:	0000de0b          	.insn	4, 0xde0b
     4e0:	1400                	addi	s0,sp,544
     4e2:	00000007          	.insn	4, 0x0007
     4e6:	0900                	addi	s0,sp,144
     4e8:	9108                	.insn	2, 0x9108
     4ea:	0004                	.insn	2, 0x0004
     4ec:	1800                	addi	s0,sp,48
     4ee:	0809                	addi	a6,a6,2 # 384b8 <_start-0x7ffc7b48>
     4f0:	000000b7          	lui	ra,0x0
     4f4:	0119                	addi	sp,sp,6
     4f6:	0126                	slli	sp,sp,0x9
     4f8:	0000                	unimp
     4fa:	0105fa07          	.insn	4, 0x0105fa07
     4fe:	0055                	c.nop	21
     500:	0000                	unimp
     502:	0738                	addi	a4,sp,904
     504:	8000                	.insn	2, 0x8000
     506:	0000                	unimp
     508:	0000                	unimp
     50a:	0774                	addi	a3,sp,908
     50c:	8000                	.insn	2, 0x8000
     50e:	0000                	unimp
     510:	0000                	unimp
     512:	075d                	addi	a4,a4,23 # 1017 <_start-0x7fffefe9>
     514:	0000                	unimp
     516:	8201                	c.srli64	a2
     518:	0005                	c.nop	1
     51a:	0f00                	addi	s0,sp,912
     51c:	00727473          	csrrci	s0,0x7,4
     520:	9f01                	subw	a4,a4,s0
     522:	1301                	addi	t1,t1,-32
     524:	00de                	slli	ra,ra,0x17
     526:	0000                	unimp
     528:	07aa                	slli	a5,a5,0xa
     52a:	0000                	unimp
     52c:	746d660f          	.insn	4, 0x746d660f
     530:	0100                	addi	s0,sp,128
     532:	019f f024 0000      	.insn	6, 0xf024019f
     538:	e000                	sd	s0,0(s0)
     53a:	1a000007          	.insn	4, 0x1a000007
     53e:	6114                	ld	a3,0(a0)
     540:	0070                	addi	a2,sp,12
     542:	a101                	j	942 <_start-0x7ffff6be>
     544:	0b01                	addi	s6,s6,0
     546:	0109                	addi	sp,sp,2
     548:	0000                	unimp
     54a:	7fb89103          	lh	sp,2043(a7)
     54e:	2e11                	addiw	t3,t3,4
     550:	0001                	nop
     552:	0100                	addi	s0,sp,128
     554:	01a2                	slli	gp,gp,0x8
     556:	de09                	beqz	a2,470 <_start-0x7ffffb90>
     558:	0000                	unimp
     55a:	2c00                	fld	fs0,24(s0)
     55c:	0008                	.insn	2, 0x0008
     55e:	1b00                	addi	s0,sp,432
     560:	017f 0000 a501 0801 	.insn	10, 0x00010801a5010000017f
     568:	0001 
     56a:	0002                	c.slli64	zero
     56c:	0080                	addi	s0,sp,64
     56e:	0000                	unimp
     570:	0e00                	addi	s0,sp,784
     572:	0002                	c.slli64	zero
     574:	0080                	addi	s0,sp,64
     576:	0000                	unimp
     578:	0200                	addi	s0,sp,256
     57a:	0072                	c.slli	zero,0x1c
     57c:	5201                	li	tp,-32
     57e:	0005                	c.nop	1
     580:	1c00                	addi	s0,sp,560
     582:	01006863          	bltu	zero,a6,592 <_start-0x7ffffa6e>
     586:	01a5                	addi	gp,gp,9 # ffffffffcb100009 <__global_pointer$+0xffffffff4b0fe7c1>
     588:	551a                	lw	a0,164(sp)
     58a:	0000                	unimp
     58c:	0100                	addi	s0,sp,128
     58e:	135a                	slli	t1,t1,0x36
     590:	01ad                	addi	gp,gp,11 # 80001853 <__global_pointer$+0xb>
     592:	0000                	unimp
     594:	a501                	j	b94 <_start-0x7ffff46c>
     596:	2501                	sext.w	a0,a0
     598:	0582                	c.slli64	a1
     59a:	0000                	unimp
     59c:	5b01                	li	s6,-32
     59e:	961d                	srai	a2,a2,0x27
     5a0:	01000003          	lb	zero,16(zero) # 10 <_start-0x7ffffff0>
     5a4:	880c01a7          	.insn	4, 0x880c01a7
     5a8:	0005                	c.nop	1
     5aa:	0100                	addi	s0,sp,128
     5ac:	621e005b          	.insn	4, 0x621e005b
     5b0:	00800007          	.insn	4, 0x00800007
     5b4:	0000                	unimp
     5b6:	0500                	addi	s0,sp,640
     5b8:	0006                	c.slli	zero,0x1
     5ba:	1f00                	addi	s0,sp,944
     5bc:	5a01                	li	s4,-32
     5be:	0309                	addi	t1,t1,2
     5c0:	0200                	addi	s0,sp,256
     5c2:	8000                	.insn	2, 0x8000
     5c4:	0000                	unimp
     5c6:	0000                	unimp
     5c8:	011f 035b a891      	.insn	6, 0xa891035b011f
     5ce:	5c011f7f 5b01f303 	.insn	12, 0x025d011f5b01f3035c011f7f
     5d6:	025d011f 
     5da:	5091                	li	ra,-28
     5dc:	0000                	unimp
     5de:	0809                	addi	a6,a6,2
     5e0:	00d6                	slli	ra,ra,0x15
     5e2:	0000                	unimp
     5e4:	0809                	addi	a6,a6,2
     5e6:	00de                	slli	ra,ra,0x17
     5e8:	0000                	unimp
     5ea:	0119                	addi	sp,sp,6
     5ec:	00000127          	.insn	4, 0x0127
     5f0:	0105ce07          	.insn	4, 0x0105ce07
     5f4:	0055                	c.nop	21
     5f6:	0000                	unimp
     5f8:	070a                	slli	a4,a4,0x2
     5fa:	8000                	.insn	2, 0x8000
     5fc:	0000                	unimp
     5fe:	0000                	unimp
     600:	0738                	addi	a4,sp,904
     602:	8000                	.insn	2, 0x8000
     604:	0000                	unimp
     606:	0000                	unimp
     608:	0878                	addi	a4,sp,28
     60a:	0000                	unimp
     60c:	0501                	addi	a0,a0,0
     60e:	0006                	c.slli	zero,0x1
     610:	0f00                	addi	s0,sp,912
     612:	6d66                	ld	s10,88(sp)
     614:	0074                	addi	a3,sp,12
     616:	9401                	srai	s0,s0,0x20
     618:	1801                	addi	a6,a6,-32
     61a:	00f0                	addi	a2,sp,76
     61c:	0000                	unimp
     61e:	08c5                	addi	a7,a7,17
     620:	0000                	unimp
     622:	141a                	slli	s0,s0,0x26
     624:	7061                	c.lui	zero,0xffff8
     626:	0100                	addi	s0,sp,128
     628:	0196                	slli	gp,gp,0x5
     62a:	0001090b          	.insn	4, 0x0001090b
     62e:	0300                	addi	s0,sp,384
     630:	a891                	j	684 <_start-0x7ffff97c>
     632:	07301e7f 00008000 	.insn	12, 0x060500000000800007301e7f
     63a:	06050000 
     63e:	0000                	unimp
     640:	011f 095a 3403      	.insn	6, 0x3403095a011f
     646:	0002                	c.slli64	zero
     648:	0080                	addi	s0,sp,64
     64a:	0000                	unimp
     64c:	1f00                	addi	s0,sp,944
     64e:	5b01                	li	s6,-32
     650:	3001                	.insn	2, 0x3001
     652:	011f 035c 01f3      	.insn	6, 0x01f3035c011f
     658:	1f5a                	slli	t5,t5,0x36
     65a:	5d01                	li	s10,-32
     65c:	9102                	jalr	sp
     65e:	0048                	addi	a0,sp,4
     660:	2000                	fld	fs0,0(s0)
     662:	0068                	addi	a0,sp,12
     664:	0000                	unimp
     666:	fd01                	bnez	a0,57e <_start-0x7ffffa82>
     668:	010d                	addi	sp,sp,3
     66a:	0442                	slli	s0,s0,0x10
     66c:	8000                	.insn	2, 0x8000
     66e:	0000                	unimp
     670:	0000                	unimp
     672:	070a                	slli	a4,a4,0x2
     674:	8000                	.insn	2, 0x8000
     676:	0000                	unimp
     678:	0000                	unimp
     67a:	0911                	addi	s2,s2,4
     67c:	0000                	unimp
     67e:	4c01                	li	s8,0
     680:	0009                	c.nop	2
     682:	2100                	fld	fs0,0(a0)
     684:	00000187          	.insn	4, 0x0187
     688:	fd01                	bnez	a0,5a0 <_start-0x7ffffa60>
     68a:	5d1e                	lw	s10,228(sp)
     68c:	0009                	c.nop	2
     68e:	5e00                	lw	s0,56(a2)
     690:	0009                	c.nop	2
     692:	2100                	fld	fs0,0(a0)
     694:	004e                	c.slli	zero,0x13
     696:	0000                	unimp
     698:	fd01                	bnez	a0,5b0 <_start-0x7ffffa50>
     69a:	823a                	mv	tp,a4
     69c:	0005                	c.nop	1
     69e:	aa00                	fsd	fs0,16(a2)
     6a0:	0009                	c.nop	2
     6a2:	2200                	fld	fs0,0(a2)
     6a4:	6d66                	ld	s10,88(sp)
     6a6:	0074                	addi	a3,sp,12
     6a8:	fd01                	bnez	a0,5c0 <_start-0x7ffffa40>
     6aa:	f04e                	sd	s3,32(sp)
     6ac:	0000                	unimp
     6ae:	f600                	sd	s0,40(a2)
     6b0:	0009                	c.nop	2
     6b2:	2200                	fld	fs0,0(a2)
     6b4:	7061                	c.lui	zero,0xffff8
     6b6:	0100                	addi	s0,sp,128
     6b8:	5bfd                	li	s7,-1
     6ba:	0109                	addi	sp,sp,2
     6bc:	0000                	unimp
     6be:	00000a8b          	.insn	4, 0x0a8b
     6c2:	01007023          	.insn	4, 0x01007023
     6c6:	00f018ff 0c710000 	.insn	12, 0xcf1100000c71000000f018ff
     6ce:	cf110000 
     6d2:	0002                	c.slli64	zero
     6d4:	0100                	addi	s0,sp,128
     6d6:	0100                	addi	s0,sp,128
     6d8:	0000f00f          	.insn	4, 0xf00f
     6dc:	fc00                	sd	s0,56(s0)
     6de:	000c                	.insn	2, 0x000c
     6e0:	1000                	addi	s0,sp,32
     6e2:	01006863          	bltu	zero,a6,6f2 <_start-0x7ffff90e>
     6e6:	0101                	addi	sp,sp,0
     6e8:	5510                	lw	a2,40(a0)
     6ea:	0000                	unimp
     6ec:	6b00                	ld	s0,16(a4)
     6ee:	000d                	c.nop	3
     6f0:	2400                	fld	fs0,8(s0)
     6f2:	7265                	lui	tp,0xffff9
     6f4:	0072                	c.slli	zero,0x1c
     6f6:	0101                	addi	sp,sp,0
     6f8:	1401                	addi	s0,s0,-32
     6fa:	0055                	c.nop	21
     6fc:	0000                	unimp
     6fe:	6e10                	ld	a2,24(a2)
     700:	6d75                	lui	s10,0x1d
     702:	0100                	addi	s0,sp,128
     704:	0102                	c.slli64	sp
     706:	f616                	sd	t0,296(sp)
     708:	0000                	unimp
     70a:	bd00                	fsd	fs0,56(a0)
     70c:	0010                	.insn	2, 0x0010
     70e:	1100                	addi	s0,sp,160
     710:	0284                	addi	s1,sp,320
     712:	0000                	unimp
     714:	0301                	addi	t1,t1,0
     716:	0701                	addi	a4,a4,0
     718:	0055                	c.nop	21
     71a:	0000                	unimp
     71c:	1119                	addi	sp,sp,-26
     71e:	0000                	unimp
     720:	c911                	beqz	a0,734 <_start-0x7ffff8cc>
     722:	0002                	c.slli64	zero
     724:	0100                	addi	s0,sp,128
     726:	550d0103          	lb	sp,1360(s10) # 1d550 <_start-0x7ffe2ab0>
     72a:	0000                	unimp
     72c:	7600                	ld	s0,40(a2)
     72e:	0011                	c.nop	4
     730:	1100                	addi	s0,sp,160
     732:	019f 0000 0301      	.insn	6, 0x03010000019f
     738:	1401                	addi	s0,s0,-32
     73a:	0055                	c.nop	21
     73c:	0000                	unimp
     73e:	126c                	addi	a1,sp,300
     740:	0000                	unimp
     742:	6e11                	lui	t3,0x4
     744:	0001                	nop
     746:	0100                	addi	s0,sp,128
     748:	551b0103          	lb	sp,1361(s6)
     74c:	0000                	unimp
     74e:	2a00                	fld	fs0,16(a2)
     750:	11000013          	li	zero,272
     754:	00b0                	addi	a2,sp,72
     756:	0000                	unimp
     758:	0301                	addi	t1,t1,0
     75a:	2601                	sext.w	a2,a2
     75c:	0055                	c.nop	21
     75e:	0000                	unimp
     760:	145a                	slli	s0,s0,0x36
     762:	0000                	unimp
     764:	bc11                	j	178 <_start-0x7ffffe88>
     766:	01000003          	lb	zero,16(zero) # 10 <_start-0x7ffffff0>
     76a:	0104                	addi	s1,sp,128
     76c:	e408                	sd	a0,8(s0)
     76e:	0000                	unimp
     770:	9200                	.insn	2, 0x9200
     772:	0014                	.insn	2, 0x0014
     774:	2500                	fld	fs0,8(a0)
     776:	0000039b          	sext.w	t2,zero
     77a:	1601                	addi	a2,a2,-32
     77c:	0301                	addi	t1,t1,0
     77e:	6626                	ld	a2,72(sp)
     780:	0001                	nop
     782:	0100                	addi	s0,sp,128
     784:	0142                	slli	sp,sp,0x10
     786:	1605                	addi	a2,a2,-31
     788:	0005                	c.nop	1
     78a:	0080                	addi	s0,sp,64
     78c:	0000                	unimp
     78e:	2600                	fld	fs0,8(a2)
     790:	029c                	addi	a5,sp,320
     792:	0000                	unimp
     794:	8201                	c.srli64	a2
     796:	0501                	addi	a0,a0,0
     798:	062e                	slli	a2,a2,0xb
     79a:	8000                	.insn	2, 0x8000
     79c:	0000                	unimp
     79e:	0000                	unimp
     7a0:	9a26                	add	s4,s4,s1
     7a2:	0002                	c.slli64	zero
     7a4:	0100                	addi	s0,sp,128
     7a6:	0180                	addi	s0,sp,192
     7a8:	2205                	addiw	tp,tp,1 # ffffffffffff9001 <__global_pointer$+0xffffffff7fff77b9>
     7aa:	0006                	c.slli	zero,0x1
     7ac:	0080                	addi	s0,sp,64
     7ae:	0000                	unimp
     7b0:	2700                	fld	fs0,8(a4)
     7b2:	00000963          	beqz	zero,7c4 <_start-0x7ffff83c>
     7b6:	05ca                	slli	a1,a1,0x12
     7b8:	8000                	.insn	2, 0x8000
	...
     7c2:	6201                	.insn	2, 0x6201
     7c4:	0d01                	addi	s10,s10,0
     7c6:	0781                	addi	a5,a5,0
     7c8:	0000                	unimp
     7ca:	7528                	ld	a0,104(a0)
     7cc:	0009                	c.nop	2
     7ce:	2900                	fld	fs0,16(a0)
     7d0:	0015                	c.nop	5
     7d2:	2800                	fld	fs0,16(s0)
     7d4:	0980                	addi	s0,sp,208
     7d6:	0000                	unimp
     7d8:	1571                	addi	a0,a0,-4
     7da:	0000                	unimp
     7dc:	2700                	fld	fs0,8(a4)
     7de:	00000993          	li	s3,0
     7e2:	0614                	addi	a3,sp,768
     7e4:	8000                	.insn	2, 0x8000
     7e6:	0000                	unimp
     7e8:	0000                	unimp
     7ea:	0030                	addi	a2,sp,8
     7ec:	0000                	unimp
     7ee:	8101                	c.srli64	a0
     7f0:	0d01                	addi	s10,s10,0
     7f2:	07ad                	addi	a5,a5,11
     7f4:	0000                	unimp
     7f6:	a528                	fsd	fa0,72(a0)
     7f8:	0009                	c.nop	2
     7fa:	a700                	fsd	fs0,8(a4)
     7fc:	0015                	c.nop	5
     7fe:	2800                	fld	fs0,16(s0)
     800:	09b0                	addi	a2,sp,216
     802:	0000                	unimp
     804:	0000160b          	.insn	4, 0x160b
     808:	2700                	fld	fs0,8(a4)
     80a:	09bd                	addi	s3,s3,15
     80c:	0000                	unimp
     80e:	0630                	addi	a2,sp,776
     810:	8000                	.insn	2, 0x8000
     812:	0000                	unimp
     814:	0000                	unimp
     816:	0080                	addi	s0,sp,64
     818:	0000                	unimp
     81a:	8301                	c.srli64	a4
     81c:	0701                	addi	a4,a4,0
     81e:	0000083f 0009cb28 	.insn	8, 0x0009cb280000083f
     826:	5500                	lw	s0,40(a0)
     828:	0016                	c.slli	zero,0x5
     82a:	2800                	fld	fs0,16(s0)
     82c:	000009d7          	.insn	4, 0x09d7
     830:	0000168b          	.insn	4, 0x168b
     834:	e328                	sd	a0,64(a4)
     836:	0009                	c.nop	2
     838:	c100                	sw	s0,0(a0)
     83a:	0016                	c.slli	zero,0x5
     83c:	2800                	fld	fs0,16(s0)
     83e:	000009ef          	jal	s3,83e <_start-0x7ffff7c2>
     842:	16e4                	addi	s1,sp,876
     844:	0000                	unimp
     846:	fb28                	sd	a0,112(a4)
     848:	0009                	c.nop	2
     84a:	0700                	addi	s0,sp,896
     84c:	28000017          	auipc	zero,0x28000
     850:	00000a07          	.insn	4, 0x0a07
     854:	173d                	addi	a4,a4,-17
     856:	0000                	unimp
     858:	8029                	srli	s0,s0,0xa
     85a:	0000                	unimp
     85c:	2a00                	fld	fs0,16(a2)
     85e:	00000a13          	li	s4,0
     862:	7d909103          	lh	sp,2009(ra) # 7d9 <_start-0x7ffff827>
     866:	000a1f2b          	.insn	4, 0x000a1f2b
     86a:	6000                	ld	s0,0(s0)
     86c:	2c000017          	auipc	zero,0x2c000
     870:	0668                	addi	a0,sp,780
     872:	8000                	.insn	2, 0x8000
     874:	0000                	unimp
     876:	0000                	unimp
     878:	082d                	addi	a6,a6,11
     87a:	0000                	unimp
     87c:	011f 025a 0087      	.insn	6, 0x0087025a011f
     882:	011f 025b 0079      	.insn	6, 0x0079025b011f
     888:	2d00                	fld	fs0,24(a0)
     88a:	06a0                	addi	s0,sp,840
     88c:	8000                	.insn	2, 0x8000
     88e:	0000                	unimp
     890:	0000                	unimp
     892:	011f 025b 0079      	.insn	6, 0x0079025b011f
     898:	0000                	unimp
     89a:	2c00                	fld	fs0,24(s0)
     89c:	0484                	addi	s1,sp,576
     89e:	8000                	.insn	2, 0x8000
     8a0:	0000                	unimp
     8a2:	0000                	unimp
     8a4:	00000853          	fadd.s	fa6,ft0,ft0,rne
     8a8:	011f 025b 0079      	.insn	6, 0x0079025b011f
     8ae:	2c00                	fld	fs0,24(s0)
     8b0:	054c                	addi	a1,sp,644
     8b2:	8000                	.insn	2, 0x8000
     8b4:	0000                	unimp
     8b6:	0000                	unimp
     8b8:	00000867          	jalr	a6,zero # 0 <_start-0x80000000>
     8bc:	011f 025b 0079      	.insn	6, 0x0079025b011f
     8c2:	2e00                	fld	fs0,24(a2)
     8c4:	0578                	addi	a4,sp,652
     8c6:	8000                	.insn	2, 0x8000
     8c8:	0000                	unimp
     8ca:	0000                	unimp
     8cc:	00000283          	lb	t0,0(zero) # 0 <_start-0x80000000>
     8d0:	0885                	addi	a7,a7,1
     8d2:	0000                	unimp
     8d4:	011f 025a 0088      	.insn	6, 0x0088025a011f
     8da:	011f 025b 0083      	.insn	6, 0x0083025b011f
     8e0:	2c00                	fld	fs0,24(s0)
     8e2:	0588                	addi	a0,sp,704
     8e4:	8000                	.insn	2, 0x8000
     8e6:	0000                	unimp
     8e8:	0000                	unimp
     8ea:	089f 0000 011f      	.insn	6, 0x011f0000089f
     8f0:	025a                	slli	tp,tp,0x16
     8f2:	011f0087          	.insn	4, 0x011f0087
     8f6:	0079025b          	.insn	4, 0x0079025b
     8fa:	2c00                	fld	fs0,24(s0)
     8fc:	059c                	addi	a5,sp,704
     8fe:	8000                	.insn	2, 0x8000
     900:	0000                	unimp
     902:	0000                	unimp
     904:	000008b3          	add	a7,zero,zero
     908:	011f 025b 0079      	.insn	6, 0x0079025b011f
     90e:	2c00                	fld	fs0,24(s0)
     910:	05be                	slli	a1,a1,0xf
     912:	8000                	.insn	2, 0x8000
     914:	0000                	unimp
     916:	0000                	unimp
     918:	08cd                	addi	a7,a7,19
     91a:	0000                	unimp
     91c:	011f 025a 0083      	.insn	6, 0x0083025a011f
     922:	011f 025b 0079      	.insn	6, 0x0079025b011f
     928:	2c00                	fld	fs0,24(s0)
     92a:	05fa                	slli	a1,a1,0x1e
     92c:	8000                	.insn	2, 0x8000
     92e:	0000                	unimp
     930:	0000                	unimp
     932:	000008e7          	jalr	a7,zero # 0 <_start-0x80000000>
     936:	011f 025a 2d08      	.insn	6, 0x2d08025a011f
     93c:	011f 025b 0079      	.insn	6, 0x0079025b011f
     942:	2c00                	fld	fs0,24(s0)
     944:	060c                	addi	a1,sp,768
     946:	8000                	.insn	2, 0x8000
     948:	0000                	unimp
     94a:	0000                	unimp
     94c:	0901                	addi	s2,s2,0
     94e:	0000                	unimp
     950:	011f 025a 3008      	.insn	6, 0x3008025a011f
     956:	011f 025b 0079      	.insn	6, 0x0079025b011f
     95c:	2c00                	fld	fs0,24(s0)
     95e:	0614                	addi	a3,sp,768
     960:	8000                	.insn	2, 0x8000
     962:	0000                	unimp
     964:	0000                	unimp
     966:	0000091b          	sext.w	s2,zero
     96a:	011f 025a 7808      	.insn	6, 0x7808025a011f
     970:	011f 025b 0079      	.insn	6, 0x0079025b011f
     976:	2c00                	fld	fs0,24(s0)
     978:	06c2                	slli	a3,a3,0x10
     97a:	8000                	.insn	2, 0x8000
     97c:	0000                	unimp
     97e:	0000                	unimp
     980:	0935                	addi	s2,s2,13
     982:	0000                	unimp
     984:	011f 025a 0084      	.insn	6, 0x0084025a011f
     98a:	011f 025b 0079      	.insn	6, 0x0079025b011f
     990:	2d00                	fld	fs0,24(a0)
     992:	06cc                	addi	a1,sp,836
     994:	8000                	.insn	2, 0x8000
     996:	0000                	unimp
     998:	0000                	unimp
     99a:	011f 025a 0084      	.insn	6, 0x0084025a011f
     9a0:	011f 025b 0079      	.insn	6, 0x0079025b011f
     9a6:	0000                	unimp
     9a8:	095d012f          	.insn	4, 0x095d012f
     9ac:	0000                	unimp
     9ae:	5530                	lw	a2,104(a0)
     9b0:	0000                	unimp
     9b2:	3000                	fld	fs0,32(s0)
     9b4:	0582                	c.slli64	a1
     9b6:	0000                	unimp
     9b8:	0900                	addi	s0,sp,144
     9ba:	4c08                	lw	a0,24(s0)
     9bc:	0009                	c.nop	2
     9be:	3100                	fld	fs0,32(a0)
     9c0:	02f2                	slli	t0,t0,0x1c
     9c2:	0000                	unimp
     9c4:	f301                	bnez	a4,8c4 <_start-0x7ffff73c>
     9c6:	0112                	slli	sp,sp,0x4
     9c8:	00c8                	addi	a0,sp,68
     9ca:	0000                	unimp
     9cc:	8d01                	sub	a0,a0,s0
     9ce:	0009                	c.nop	2
     9d0:	3200                	fld	fs0,32(a2)
     9d2:	7061                	c.lui	zero,0xffff8
     9d4:	0100                	addi	s0,sp,128
     9d6:	098d22f3          	csrrs	t0,0x98,s10
     9da:	0000                	unimp
     9dc:	0002c933          	xor	s2,t0,zero
     9e0:	0100                	addi	s0,sp,128
     9e2:	00552af3          	csrrs	s5,utvec,a0
     9e6:	0000                	unimp
     9e8:	0900                	addi	s0,sp,144
     9ea:	0908                	addi	a0,sp,144
     9ec:	0001                	nop
     9ee:	3100                	fld	fs0,32(a0)
     9f0:	01a5                	addi	gp,gp,9 # 80001851 <__global_pointer$+0x9>
     9f2:	0000                	unimp
     9f4:	e901                	bnez	a0,a04 <_start-0x7ffff5fc>
     9f6:	00f6011b          	addiw	sp,a2,15
     9fa:	0000                	unimp
     9fc:	bd01                	j	80c <_start-0x7ffff7f4>
     9fe:	0009                	c.nop	2
     a00:	3200                	fld	fs0,32(a2)
     a02:	7061                	c.lui	zero,0xffff8
     a04:	0100                	addi	s0,sp,128
     a06:	2ce9                	addiw	s9,s9,26
     a08:	098d                	addi	s3,s3,3
     a0a:	0000                	unimp
     a0c:	0002c933          	xor	s2,t0,zero
     a10:	0100                	addi	s0,sp,128
     a12:	34e9                	addiw	s1,s1,-6
     a14:	0055                	c.nop	21
     a16:	0000                	unimp
     a18:	3400                	fld	fs0,40(s0)
     a1a:	037c                	addi	a5,sp,396
     a1c:	0000                	unimp
     a1e:	d401                	beqz	s0,926 <_start-0x7ffff6da>
     a20:	0114                	addi	a3,sp,128
     a22:	000a2c03          	lw	s8,0(s4)
     a26:	3300                	fld	fs0,32(a4)
     a28:	00000187          	.insn	4, 0x0187
     a2c:	d401                	beqz	s0,934 <_start-0x7ffff6cc>
     a2e:	5d24                	lw	s1,120(a0)
     a30:	0009                	c.nop	2
     a32:	3300                	fld	fs0,32(a4)
     a34:	004e                	c.slli	zero,0x13
     a36:	0000                	unimp
     a38:	d401                	beqz	s0,940 <_start-0x7ffff6c0>
     a3a:	8240                	.insn	2, 0x8240
     a3c:	0005                	c.nop	1
     a3e:	3200                	fld	fs0,32(a2)
     a40:	756e                	ld	a0,248(sp)
     a42:	006d                	c.nop	27
     a44:	d501                	beqz	a0,94c <_start-0x7ffff6b4>
     a46:	f628                	sd	a0,104(a2)
     a48:	0000                	unimp
     a4a:	3300                	fld	fs0,32(a4)
     a4c:	0284                	addi	s1,sp,320
     a4e:	0000                	unimp
     a50:	d501                	beqz	a0,958 <_start-0x7ffff6a8>
     a52:	5c36                	lw	s8,108(sp)
     a54:	0000                	unimp
     a56:	3300                	fld	fs0,32(a4)
     a58:	019f 0000 d501      	.insn	6, 0xd5010000019f
     a5e:	5540                	lw	s0,44(a0)
     a60:	0000                	unimp
     a62:	3300                	fld	fs0,32(a4)
     a64:	03bc                	addi	a5,sp,456
     a66:	0000                	unimp
     a68:	d501                	beqz	a0,970 <_start-0x7ffff690>
     a6a:	0000554b          	fnmsub.s	fa0,ft0,ft0,ft0,unknown
     a6e:	3500                	fld	fs0,40(a0)
     a70:	0144                	addi	s1,sp,132
     a72:	0000                	unimp
     a74:	d701                	beqz	a4,97c <_start-0x7ffff684>
     a76:	2c0c                	fld	fa1,24(s0)
     a78:	000a                	c.slli	zero,0x2
     a7a:	3600                	fld	fs0,40(a2)
     a7c:	6f70                	ld	a2,216(a4)
     a7e:	d8010073          	.insn	4, 0xd8010073
     a82:	00005507          	.insn	4, 0x5507
     a86:	0000                	unimp
     a88:	00005c0b          	.insn	4, 0x5c0b
     a8c:	3c00                	fld	fs0,56(s0)
     a8e:	000a                	c.slli	zero,0x2
     a90:	0c00                	addi	s0,sp,528
     a92:	0076                	c.slli	zero,0x1d
     a94:	0000                	unimp
     a96:	0137003f 0000034f 	.insn	8, 0x034f0137003f
     a9e:	c601                	beqz	a2,aa6 <_start-0x7ffff55a>
     aa0:	0106                	slli	sp,sp,0x1
     aa2:	0336                	slli	t1,t1,0xd
     aa4:	8000                	.insn	2, 0x8000
     aa6:	0000                	unimp
     aa8:	0000                	unimp
     aaa:	037e                	slli	t1,t1,0x1f
     aac:	8000                	.insn	2, 0x8000
     aae:	0000                	unimp
     ab0:	0000                	unimp
     ab2:	000017ff 000ac101 	.insn	12, 0x00782200000ac101000017ff
     aba:	00782200 
     abe:	c601                	beqz	a2,ac6 <_start-0x7ffff53a>
     ac0:	9a18                	.insn	2, 0x9a18
     ac2:	0000                	unimp
     ac4:	4b00                	lw	s0,16(a4)
     ac6:	0018                	.insn	2, 0x0018
     ac8:	3800                	fld	fs0,48(s0)
     aca:	00727473          	csrrci	s0,0x7,4
     ace:	c801                	beqz	s0,ade <_start-0x7ffff522>
     ad0:	c108                	sw	a0,0(a0)
     ad2:	000a                	c.slli	zero,0x2
     ad4:	0200                	addi	s0,sp,256
     ad6:	5891                	li	a7,-28
     ad8:	01006923          	.insn	4, 0x01006923
     adc:	07c9                	addi	a5,a5,18
     ade:	0055                	c.nop	21
     ae0:	0000                	unimp
     ae2:	1881                	addi	a7,a7,-32
     ae4:	0000                	unimp
     ae6:	da39                	beqz	a2,a3c <_start-0x7ffff5c4>
     ae8:	000e                	c.slli	zero,0x3
     aea:	7200                	ld	s0,32(a2)
     aec:	00800003          	lb	zero,8(zero) # 8 <_start-0x7ffffff8>
     af0:	0000                	unimp
     af2:	7800                	ld	s0,48(s0)
     af4:	00800003          	lb	zero,8(zero) # 8 <_start-0x7ffffff8>
     af8:	0000                	unimp
     afa:	0100                	addi	s0,sp,128
     afc:	03d1                	addi	t2,t2,20
     afe:	e928                	sd	a0,80(a0)
     b00:	000e                	c.slli	zero,0x3
     b02:	0900                	addi	s0,sp,144
     b04:	0019                	c.nop	6
     b06:	1e00                	addi	s0,sp,816
     b08:	0378                	addi	a4,sp,396
     b0a:	8000                	.insn	2, 0x8000
     b0c:	0000                	unimp
     b0e:	0000                	unimp
     b10:	000010cf          	fnmadd.s	ft1,ft0,ft0,ft0,rtz
     b14:	011f 025a 5891      	.insn	6, 0x5891025a011f
     b1a:	0000                	unimp
     b1c:	0b00                	addi	s0,sp,400
     b1e:	00e4                	addi	s1,sp,76
     b20:	0000                	unimp
     b22:	0ad1                	addi	s5,s5,20
     b24:	0000                	unimp
     b26:	760c                	ld	a1,40(a2)
     b28:	0000                	unimp
     b2a:	1000                	addi	s0,sp,32
     b2c:	1900                	addi	s0,sp,176
     b2e:	1701                	addi	a4,a4,-32
     b30:	0001                	nop
     b32:	0700                	addi	s0,sp,896
     b34:	05e2                	slli	a1,a1,0x18
     b36:	5501                	li	a0,-32
     b38:	0000                	unimp
     b3a:	3400                	fld	fs0,40(s0)
     b3c:	0002                	c.slli64	zero
     b3e:	0080                	addi	s0,sp,64
     b40:	0000                	unimp
     b42:	4800                	lw	s0,16(s0)
     b44:	0002                	c.slli64	zero
     b46:	0080                	addi	s0,sp,64
     b48:	0000                	unimp
     b4a:	4100                	lw	s0,0(a0)
     b4c:	0019                	c.nop	6
     b4e:	0100                	addi	s0,sp,128
     b50:	0b1d                	addi	s6,s6,7
     b52:	0000                	unimp
     b54:	6322                	ld	t1,8(sp)
     b56:	0068                	addi	a0,sp,12
     b58:	b101                	j	758 <_start-0x7ffff8a8>
     b5a:	5511                	li	a0,-28
     b5c:	0000                	unimp
     b5e:	8d00                	.insn	2, 0x8d00
     b60:	0019                	c.nop	6
     b62:	1e00                	addi	s0,sp,816
     b64:	0240                	addi	s0,sp,260
     b66:	8000                	.insn	2, 0x8000
     b68:	0000                	unimp
     b6a:	0000                	unimp
     b6c:	1161                	addi	sp,sp,-8
     b6e:	0000                	unimp
     b70:	011f 035a 01f3      	.insn	6, 0x01f3035a011f
     b76:	005a                	c.slli	zero,0x16
     b78:	3700                	fld	fs0,40(a4)
     b7a:	6101                	addi	sp,sp,0
     b7c:	01000003          	lb	zero,16(zero) # 10 <_start-0x7ffffff0>
     b80:	069c                	addi	a5,sp,832
     b82:	7401                	lui	s0,0xfffe0
     b84:	00800007          	.insn	4, 0x00800007
     b88:	0000                	unimp
     b8a:	3000                	fld	fs0,32(s0)
     b8c:	0008                	.insn	2, 0x0008
     b8e:	0080                	addi	s0,sp,64
     b90:	0000                	unimp
     b92:	c600                	sw	s0,8(a2)
     b94:	0019                	c.nop	6
     b96:	0100                	addi	s0,sp,128
     b98:	0d3e                	slli	s10,s10,0xf
     b9a:	0000                	unimp
     b9c:	6322                	ld	t1,8(sp)
     b9e:	6469                	lui	s0,0x1a
     ba0:	0100                	addi	s0,sp,128
     ba2:	109c                	addi	a5,sp,96
     ba4:	0055                	c.nop	21
     ba6:	0000                	unimp
     ba8:	000019ff 00636e22 	.insn	12, 0x55199c0100636e22000019ff
     bb0:	55199c01 
     bb4:	0000                	unimp
     bb6:	4b00                	lw	s0,16(a4)
     bb8:	001a                	c.slli	zero,0x6
     bba:	3800                	fld	fs0,48(s0)
     bbc:	6572                	ld	a0,280(sp)
     bbe:	0074                	addi	a3,sp,12
     bc0:	a301                	j	10c0 <_start-0x7fffef40>
     bc2:	00005507          	.insn	4, 0x5507
     bc6:	0100                	addi	s0,sp,128
     bc8:	3a59                	addiw	s4,s4,-10
     bca:	7562                	ld	a0,56(sp)
     bcc:	0066                	c.slli	zero,0x19
     bce:	a501                	j	11ce <_start-0x7fffee32>
     bd0:	3e08                	fld	fa0,56(a2)
     bd2:	000d                	c.nop	3
     bd4:	4000                	lw	s0,0(s0)
     bd6:	7802                	ld	a6,32(sp)
     bd8:	3b00                	fld	fs0,48(a4)
     bda:	005c                	addi	a5,sp,4
     bdc:	0000                	unimp
     bde:	a601                	j	ede <_start-0x7ffff122>
     be0:	de09                	beqz	a2,afa <_start-0x7ffff506>
     be2:	0000                	unimp
     be4:	c000                	sw	s0,0(s0)
     be6:	001a                	c.slli	zero,0x6
     be8:	3c00                	fld	fs0,56(s0)
     bea:	00b0                	addi	a2,sp,72
     bec:	0000                	unimp
     bee:	00000beb          	.insn	4, 0x0beb
     bf2:	01006923          	.insn	4, 0x01006923
     bf6:	00550ca7          	.insn	4, 0x00550ca7
     bfa:	0000                	unimp
     bfc:	1b1c                	addi	a5,sp,432
     bfe:	0000                	unimp
     c00:	f82e                	sd	a1,48(sp)
     c02:	00800007          	.insn	4, 0x00800007
     c06:	0000                	unimp
     c08:	9800                	.insn	2, 0x9800
     c0a:	0004                	.insn	2, 0x0004
     c0c:	c900                	sw	s0,16(a0)
     c0e:	1f00000b          	.insn	4, 0x1f00000b
     c12:	5a01                	li	s4,-32
     c14:	8202                	jr	tp
     c16:	1f00                	addi	s0,sp,944
     c18:	5b01                	li	s6,-32
     c1a:	0309                	addi	t1,t1,2
     c1c:	0900                	addi	s0,sp,144
     c1e:	8000                	.insn	2, 0x8000
     c20:	0000                	unimp
     c22:	0000                	unimp
     c24:	1e00                	addi	s0,sp,816
     c26:	0824                	addi	s1,sp,24
     c28:	8000                	.insn	2, 0x8000
     c2a:	0000                	unimp
     c2c:	0000                	unimp
     c2e:	0498                	addi	a4,sp,576
     c30:	0000                	unimp
     c32:	011f 025a 0078      	.insn	6, 0x0078025a011f
     c38:	011f 095b 0003      	.insn	6, 0x0003095b011f
     c3e:	0009                	c.nop	2
     c40:	0080                	addi	s0,sp,64
     c42:	0000                	unimp
     c44:	0000                	unimp
     c46:	3d00                	fld	fs0,56(a0)
     c48:	0d4e                	slli	s10,s10,0x13
     c4a:	0000                	unimp
     c4c:	0790                	addi	a2,sp,960
     c4e:	8000                	.insn	2, 0x8000
     c50:	0000                	unimp
     c52:	0000                	unimp
     c54:	07b8                	addi	a4,sp,968
     c56:	8000                	.insn	2, 0x8000
     c58:	0000                	unimp
     c5a:	0000                	unimp
     c5c:	9e01                	subw	a2,a2,s0
     c5e:	000c6d03          	lwu	s10,0(s8)
     c62:	2a00                	fld	fs0,16(a2)
     c64:	00000d5b          	.insn	4, 0x0d5b
     c68:	5401                	li	s0,-32
     c6a:	000d912b          	.insn	4, 0x000d912b
     c6e:	9000                	.insn	2, 0x9000
     c70:	2b00001b          	addiw	zero,zero,688
     c74:	0d9d                	addi	s11,s11,7
     c76:	0000                	unimp
     c78:	00001bb3          	sll	s7,zero,zero
     c7c:	673e                	ld	a4,456(sp)
     c7e:	000d                	c.nop	3
     c80:	0100                	addi	s0,sp,128
     c82:	753e                	ld	a0,488(sp)
     c84:	000d                	c.nop	3
     c86:	0100                	addi	s0,sp,128
     c88:	833e                	mv	t1,a5
     c8a:	000d                	c.nop	3
     c8c:	0100                	addi	s0,sp,128
     c8e:	a62e                	fsd	fa1,264(sp)
     c90:	00800007          	.insn	4, 0x00800007
     c94:	0000                	unimp
     c96:	6d00                	ld	s0,24(a0)
     c98:	0012                	c.slli	zero,0x4
     c9a:	5000                	lw	s0,32(s0)
     c9c:	000c                	.insn	2, 0x000c
     c9e:	1f00                	addi	s0,sp,944
     ca0:	5a01                	li	s4,-32
     ca2:	8502                	jr	a0
     ca4:	1f00                	addi	s0,sp,944
     ca6:	5c01                	li	s8,-32
     ca8:	8302                	jr	t1
     caa:	0000                	unimp
     cac:	b81e                	fsd	ft7,48(sp)
     cae:	00800007          	.insn	4, 0x00800007
     cb2:	0000                	unimp
     cb4:	7a00                	ld	s0,48(a2)
     cb6:	0012                	c.slli	zero,0x4
     cb8:	1f00                	addi	s0,sp,944
     cba:	5a01                	li	s4,-32
     cbc:	8505                	srai	a0,a0,0x1
     cbe:	8300                	.insn	2, 0x8300
     cc0:	2200                	fld	fs0,0(a2)
     cc2:	011f 015b 0030      	.insn	6, 0x0030015b011f
     cc8:	3d00                	fld	fs0,56(a0)
     cca:	11b0                	addi	a2,sp,232
     ccc:	0000                	unimp
     cce:	07c0                	addi	s0,sp,964
     cd0:	8000                	.insn	2, 0x8000
     cd2:	0000                	unimp
     cd4:	0000                	unimp
     cd6:	07ca                	slli	a5,a5,0x12
     cd8:	8000                	.insn	2, 0x8000
     cda:	0000                	unimp
     cdc:	0000                	unimp
     cde:	a001                	j	cde <_start-0x7ffff322>
     ce0:	000c9303          	lh	t1,0(s9)
     ce4:	3f00                	fld	fs0,56(a4)
     ce6:	000011bf 10000003 	.insn	8, 0x10000003000011bf
     cee:	3d00                	fld	fs0,56(a0)
     cf0:	0eda                	slli	t4,t4,0x16
     cf2:	0000                	unimp
     cf4:	07fe                	slli	a5,a5,0x1f
     cf6:	8000                	.insn	2, 0x8000
     cf8:	0000                	unimp
     cfa:	0000                	unimp
     cfc:	0804                	addi	s1,sp,16
     cfe:	8000                	.insn	2, 0x8000
     d00:	0000                	unimp
     d02:	0000                	unimp
     d04:	ab01                	j	1214 <_start-0x7fffedec>
     d06:	cd05                	beqz	a0,d3e <_start-0x7ffff2c2>
     d08:	000c                	.insn	2, 0x000c
     d0a:	2800                	fld	fs0,16(s0)
     d0c:	0ee9                	addi	t4,t4,26
     d0e:	0000                	unimp
     d10:	1bd6                	slli	s7,s7,0x35
     d12:	0000                	unimp
     d14:	041e                	slli	s0,s0,0x7
     d16:	0008                	.insn	2, 0x0008
     d18:	0080                	addi	s0,sp,64
     d1a:	0000                	unimp
     d1c:	cf00                	sw	s0,24(a4)
     d1e:	0010                	.insn	2, 0x0010
     d20:	1f00                	addi	s0,sp,944
     d22:	5a01                	li	s4,-32
     d24:	7802                	ld	a6,32(sp)
     d26:	0000                	unimp
     d28:	3d00                	fld	fs0,56(a0)
     d2a:	0f4a                	slli	t5,t5,0x12
     d2c:	0000                	unimp
     d2e:	0804                	addi	s1,sp,16
     d30:	8000                	.insn	2, 0x8000
     d32:	0000                	unimp
     d34:	0000                	unimp
     d36:	080a                	slli	a6,a6,0x2
     d38:	8000                	.insn	2, 0x8000
     d3a:	0000                	unimp
     d3c:	0000                	unimp
     d3e:	ad01                	j	134e <_start-0x7fffecb2>
     d40:	000d0703          	lb	a4,0(s10)
     d44:	2800                	fld	fs0,16(s0)
     d46:	0f5a                	slli	t5,t5,0x16
     d48:	0000                	unimp
     d4a:	1bf9                	addi	s7,s7,-2
     d4c:	0000                	unimp
     d4e:	0a1e                	slli	s4,s4,0x7
     d50:	0008                	.insn	2, 0x0008
     d52:	0080                	addi	s0,sp,64
     d54:	0000                	unimp
     d56:	d400                	sw	s0,40(s0)
     d58:	1f00000f          	.insn	4, 0x1f00000f
     d5c:	5a01                	li	s4,-32
     d5e:	7902                	ld	s2,32(sp)
     d60:	0000                	unimp
     d62:	2e00                	fld	fs0,24(a2)
     d64:	07c0                	addi	s0,sp,964
     d66:	8000                	.insn	2, 0x8000
     d68:	0000                	unimp
     d6a:	0000                	unimp
     d6c:	00000e2f          	.insn	4, 0x0e2f
     d70:	0d25                	addi	s10,s10,9
     d72:	0000                	unimp
     d74:	011f 025a 0079      	.insn	6, 0x0079025a011f
     d7a:	011f 025b 0082      	.insn	6, 0x0082025b011f
     d80:	1e00                	addi	s0,sp,816
     d82:	07d2                	slli	a5,a5,0x14
     d84:	8000                	.insn	2, 0x8000
     d86:	0000                	unimp
     d88:	0000                	unimp
     d8a:	0daa                	slli	s11,s11,0xa
     d8c:	0000                	unimp
     d8e:	011f 015a 1f30      	.insn	6, 0x1f30015a011f
     d94:	5b01                	li	s6,-32
     d96:	3001                	.insn	2, 0x3001
     d98:	0000                	unimp
     d9a:	0000e40b          	.insn	4, 0xe40b
     d9e:	4e00                	lw	s0,24(a2)
     da0:	000d                	c.nop	3
     da2:	0c00                	addi	s0,sp,528
     da4:	0076                	c.slli	zero,0x1d
     da6:	0000                	unimp
     da8:	8d40003f 01000001 	.insn	8, 0x010000018d40003f
     db0:	0d92                	slli	s11,s11,0x4
     db2:	aa01                	j	ec2 <_start-0x7ffff13e>
     db4:	000d                	c.nop	3
     db6:	3500                	fld	fs0,40(a0)
     db8:	00b8                	addi	a4,sp,72
     dba:	0000                	unimp
     dbc:	9401                	srai	s0,s0,0x20
     dbe:	d612                	sw	tp,44(sp)
     dc0:	0000                	unimp
     dc2:	0a00                	addi	s0,sp,272
     dc4:	00f8                	addi	a4,sp,76
     dc6:	0000                	unimp
     dc8:	9501                	srai	a0,a0,0x20
     dca:	0000e40f          	.insn	4, 0xe40f
     dce:	0100                	addi	s0,sp,128
     dd0:	0a01                	addi	s4,s4,0
     dd2:	0000038b          	.insn	4, 0x038b
     dd6:	9501                	srai	a0,a0,0x20
     dd8:	e41d                	bnez	s0,e06 <_start-0x7ffff1fa>
     dda:	0000                	unimp
     ddc:	0100                	addi	s0,sp,128
     dde:	0a01                	addi	s4,s4,0
     de0:	02dd                	addi	t0,t0,23
     de2:	0000                	unimp
     de4:	9501                	srai	a0,a0,0x20
     de6:	e429                	bnez	s0,e30 <_start-0x7ffff1d0>
     de8:	0000                	unimp
     dea:	0100                	addi	s0,sp,128
     dec:	3501                	addiw	a0,a0,-32
     dee:	00de                	slli	ra,ra,0x17
     df0:	0000                	unimp
     df2:	9601                	srai	a2,a2,0x20
     df4:	bc0a                	fsd	ft2,56(sp)
     df6:	0000                	unimp
     df8:	3500                	fld	fs0,40(a0)
     dfa:	0340                	addi	s0,sp,388
     dfc:	0000                	unimp
     dfe:	9801                	andi	s0,s0,-32
     e00:	bc0a                	fsd	ft2,56(sp)
     e02:	0000                	unimp
     e04:	0000                	unimp
     e06:	0119                	addi	sp,sp,6
     e08:	0000013f 011b8b01 	.insn	8, 0x011b8b010000013f
     e10:	0055                	c.nop	21
     e12:	0000                	unimp
     e14:	031e                	slli	t1,t1,0x7
     e16:	8000                	.insn	2, 0x8000
     e18:	0000                	unimp
     e1a:	0000                	unimp
     e1c:	0336                	slli	t1,t1,0xd
     e1e:	8000                	.insn	2, 0x8000
     e20:	0000                	unimp
     e22:	0000                	unimp
     e24:	1c1c                	addi	a5,sp,560
     e26:	0000                	unimp
     e28:	2f01                	sext.w	t5,t5
     e2a:	000e                	c.slli	zero,0x3
     e2c:	2100                	fld	fs0,0(a0)
     e2e:	03ae                	slli	t2,t2,0xb
     e30:	0000                	unimp
     e32:	8b01                	andi	a4,a4,0
     e34:	5524                	lw	s1,104(a0)
     e36:	0000                	unimp
     e38:	6800                	ld	s0,16(s0)
     e3a:	001c                	.insn	2, 0x001c
     e3c:	2100                	fld	fs0,0(a0)
     e3e:	03c1                	addi	t2,t2,16
     e40:	0000                	unimp
     e42:	8b01                	andi	a4,a4,0
     e44:	8831                	andi	s0,s0,12
     e46:	0005                	c.nop	1
     e48:	a100                	fsd	fs0,0(a0)
     e4a:	001c                	.insn	2, 0x001c
     e4c:	3900                	fld	fs0,48(a0)
     e4e:	0eda                	slli	t4,t4,0x16
     e50:	0000                	unimp
     e52:	0322                	slli	t1,t1,0x8
     e54:	8000                	.insn	2, 0x8000
     e56:	0000                	unimp
     e58:	0000                	unimp
     e5a:	032e                	slli	t1,t1,0xb
     e5c:	8000                	.insn	2, 0x8000
     e5e:	0000                	unimp
     e60:	0000                	unimp
     e62:	8e01                	sub	a2,a2,s0
     e64:	0ee92803          	lw	a6,238(s2)
     e68:	0000                	unimp
     e6a:	1cda                	slli	s9,s9,0x36
     e6c:	0000                	unimp
     e6e:	2e1e                	fld	ft8,448(sp)
     e70:	00800003          	lb	zero,8(zero) # 8 <_start-0x7ffffff8>
     e74:	0000                	unimp
     e76:	cf00                	sw	s0,24(a4)
     e78:	0010                	.insn	2, 0x0010
     e7a:	1f00                	addi	s0,sp,944
     e7c:	5a01                	li	s4,-32
     e7e:	0309                	addi	t1,t1,2
     e80:	08e0                	addi	s0,sp,92
     e82:	8000                	.insn	2, 0x8000
     e84:	0000                	unimp
     e86:	0000                	unimp
     e88:	0000                	unimp
     e8a:	4100                	lw	s0,0(a0)
     e8c:	da01                	beqz	a2,d9c <_start-0x7ffff264>
     e8e:	01000003          	lb	zero,16(zero) # 10 <_start-0x7ffffff0>
     e92:	1c84                	addi	s1,sp,624
     e94:	1801                	addi	a6,a6,-32
     e96:	00800003          	lb	zero,8(zero) # 8 <_start-0x7ffffff8>
     e9a:	0000                	unimp
     e9c:	1e00                	addi	s0,sp,816
     e9e:	00800003          	lb	zero,8(zero) # 8 <_start-0x7ffffff8>
     ea2:	0000                	unimp
     ea4:	0200                	addi	s0,sp,256
     ea6:	0072                	c.slli	zero,0x1c
     ea8:	6d01                	.insn	2, 0x6d01
     eaa:	000e                	c.slli	zero,0x3
     eac:	4200                	lw	s0,0(a2)
     eae:	00646963          	bltu	s0,t1,ec0 <_start-0x7ffff140>
     eb2:	8401                	c.srai64	s0
     eb4:	552d                	li	a0,-21
     eb6:	0000                	unimp
     eb8:	0100                	addi	s0,sp,128
     eba:	425a                	lw	tp,148(sp)
     ebc:	636e                	ld	t1,216(sp)
     ebe:	0100                	addi	s0,sp,128
     ec0:	3684                	fld	fs1,40(a3)
     ec2:	0055                	c.nop	21
     ec4:	0000                	unimp
     ec6:	5b01                	li	s6,-32
     ec8:	1900                	addi	s0,sp,176
     eca:	8901                	andi	a0,a0,0
     ecc:	0002                	c.slli64	zero
     ece:	0700                	addi	s0,sp,896
     ed0:	550105e3          	beq	sp,a6,1c1a <_start-0x7fffe3e6>
     ed4:	0000                	unimp
     ed6:	0800                	addi	s0,sp,16
     ed8:	00800003          	lb	zero,8(zero) # 8 <_start-0x7ffffff8>
     edc:	0000                	unimp
     ede:	1800                	addi	s0,sp,48
     ee0:	00800003          	lb	zero,8(zero) # 8 <_start-0x7ffffff8>
     ee4:	0000                	unimp
     ee6:	0600                	addi	s0,sp,768
     ee8:	001d                	c.nop	7
     eea:	0100                	addi	s0,sp,128
     eec:	0eda                	slli	t4,t4,0x16
     eee:	0000                	unimp
     ef0:	7322                	ld	t1,40(sp)
     ef2:	0100                	addi	s0,sp,128
     ef4:	167e                	slli	a2,a2,0x3f
     ef6:	00f0                	addi	a2,sp,76
     ef8:	0000                	unimp
     efa:	1d52                	slli	s10,s10,0x34
     efc:	0000                	unimp
     efe:	da39                	beqz	a2,e54 <_start-0x7ffff1ac>
     f00:	000e                	c.slli	zero,0x3
     f02:	0c00                	addi	s0,sp,528
     f04:	00800003          	lb	zero,8(zero) # 8 <_start-0x7ffffff8>
     f08:	0000                	unimp
     f0a:	1000                	addi	s0,sp,32
     f0c:	00800003          	lb	zero,8(zero) # 8 <_start-0x7ffffff8>
     f10:	0000                	unimp
     f12:	0100                	addi	s0,sp,128
     f14:	0380                	addi	s0,sp,448
     f16:	e928                	sd	a0,80(a0)
     f18:	000e                	c.slli	zero,0x3
     f1a:	8b00                	.insn	2, 0x8b00
     f1c:	001d                	c.nop	7
     f1e:	1e00                	addi	s0,sp,816
     f20:	0310                	addi	a2,sp,384
     f22:	8000                	.insn	2, 0x8000
     f24:	0000                	unimp
     f26:	0000                	unimp
     f28:	000010cf          	fnmadd.s	ft1,ft0,ft0,ft0,rtz
     f2c:	011f 035a 01f3      	.insn	6, 0x01f3035a011f
     f32:	005a                	c.slli	zero,0x16
     f34:	0000                	unimp
     f36:	03580143          	fmadd.d	ft2,fa6,fs5,ft0,rne
     f3a:	0000                	unimp
     f3c:	7301                	lui	t1,0xfffe0
     f3e:	0106                	slli	sp,sp,0x1
     f40:	f401                	bnez	s0,e48 <_start-0x7ffff1b8>
     f42:	000e                	c.slli	zero,0x3
     f44:	3200                	fld	fs0,32(a2)
     f46:	73010073          	.insn	4, 0x73010073
     f4a:	0000f01b          	.insn	4, 0xf01b
     f4e:	0000                	unimp
     f50:	0144                	addi	s1,sp,132
     f52:	0385                	addi	t2,t2,1
     f54:	0000                	unimp
     f56:	6e01                	.insn	2, 0x6e01
     f58:	ee06                	sd	ra,280(sp)
     f5a:	0002                	c.slli64	zero
     f5c:	0080                	addi	s0,sp,64
     f5e:	0000                	unimp
     f60:	fa00                	sd	s0,48(a2)
     f62:	0002                	c.slli64	zero
     f64:	0080                	addi	s0,sp,64
     f66:	0000                	unimp
     f68:	c400                	sw	s0,8(s0)
     f6a:	001d                	c.nop	7
     f6c:	0100                	addi	s0,sp,128
     f6e:	0f4a                	slli	t5,t5,0x12
     f70:	0000                	unimp
     f72:	4a39                	li	s4,14
     f74:	f200000f          	.insn	4, 0xf200000f
     f78:	0002                	c.slli64	zero
     f7a:	0080                	addi	s0,sp,64
     f7c:	0000                	unimp
     f7e:	fa00                	sd	s0,48(a2)
     f80:	0002                	c.slli64	zero
     f82:	0080                	addi	s0,sp,64
     f84:	0000                	unimp
     f86:	0100                	addi	s0,sp,128
     f88:	0370                	addi	a2,sp,396
     f8a:	5a45                	li	s4,-15
     f8c:	8600000f          	.insn	4, 0x8600000f
     f90:	fa1e                	sd	t2,304(sp)
     f92:	0002                	c.slli64	zero
     f94:	0080                	addi	s0,sp,64
     f96:	0000                	unimp
     f98:	d400                	sw	s0,40(s0)
     f9a:	1f00000f          	.insn	4, 0x1f00000f
     f9e:	5a01                	li	s4,-32
     fa0:	0802                	c.slli64	a6
     fa2:	0086                	slli	ra,ra,0x1
     fa4:	0000                	unimp
     fa6:	0146                	slli	sp,sp,0x11
     fa8:	03d5                	addi	t2,t2,21
     faa:	0000                	unimp
     fac:	6901                	.insn	2, 0x6901
     fae:	0106                	slli	sp,sp,0x1
     fb0:	0101                	addi	sp,sp,0
     fb2:	00000f67          	jalr	t5,zero # 0 <_start-0x80000000>
     fb6:	0003a433          	sltz	s0,t2
     fba:	0100                	addi	s0,sp,128
     fbc:	0f69                	addi	t5,t5,26
     fbe:	0055                	c.nop	21
     fc0:	0000                	unimp
     fc2:	1900                	addi	s0,sp,176
     fc4:	7c01                	lui	s8,0xfffe0
     fc6:	0000                	unimp
     fc8:	0100                	addi	s0,sp,128
     fca:	2164                	fld	fs1,192(a0)
     fcc:	ab01                	j	14dc <_start-0x7fffeb24>
     fce:	0000                	unimp
     fd0:	da00                	sw	s0,48(a2)
     fd2:	0002                	c.slli64	zero
     fd4:	0080                	addi	s0,sp,64
     fd6:	0000                	unimp
     fd8:	e600                	sd	s0,8(a2)
     fda:	0002                	c.slli64	zero
     fdc:	0080                	addi	s0,sp,64
     fde:	0000                	unimp
     fe0:	fc00                	sd	s0,56(s0)
     fe2:	001d                	c.nop	7
     fe4:	0100                	addi	s0,sp,128
     fe6:	0fd4                	addi	a3,sp,980
     fe8:	0000                	unimp
     fea:	f221                	bnez	a2,f2a <_start-0x7ffff0d6>
     fec:	0000                	unimp
     fee:	0100                	addi	s0,sp,128
     ff0:	3764                	fld	fs1,232(a4)
     ff2:	000000ab          	.insn	4, 0x00ab
     ff6:	1e34                	addi	a3,sp,824
     ff8:	0000                	unimp
     ffa:	6522                	ld	a0,8(sp)
     ffc:	6370                	ld	a2,192(a4)
     ffe:	0100                	addi	s0,sp,128
    1000:	4864                	lw	s1,84(s0)
    1002:	000000ab          	.insn	4, 0x00ab
    1006:	1e6d                	addi	t3,t3,-5 # 3ffb <_start-0x7fffc005>
    1008:	0000                	unimp
    100a:	4a21                	li	s4,8
    100c:	01000003          	lb	zero,16(zero) # 10 <_start-0x7ffffff0>
    1010:	5764                	lw	s1,108(a4)
    1012:	000003cb          	fnmsub.s	ft7,ft0,ft0,ft0,rne
    1016:	1ea6                	slli	t4,t4,0x29
    1018:	0000                	unimp
    101a:	e61e                	sd	t2,264(sp)
    101c:	0002                	c.slli64	zero
    101e:	0080                	addi	s0,sp,64
    1020:	0000                	unimp
    1022:	d400                	sw	s0,40(s0)
    1024:	1f00000f          	.insn	4, 0x1f00000f
    1028:	5a01                	li	s4,-32
    102a:	05390a03          	lb	s4,83(s2)
    102e:	0000                	unimp
    1030:	03ce0147          	fmsub.d	ft2,ft8,ft8,ft0,rne
    1034:	0000                	unimp
    1036:	5e01                	li	t3,-32
    1038:	0120                	addi	s0,sp,136
    103a:	c801                	beqz	s0,104a <_start-0x7fffefb6>
    103c:	0002                	c.slli64	zero
    103e:	0080                	addi	s0,sp,64
    1040:	0000                	unimp
    1042:	da00                	sw	s0,48(a2)
    1044:	0002                	c.slli64	zero
    1046:	0080                	addi	s0,sp,64
    1048:	0000                	unimp
    104a:	0200                	addi	s0,sp,256
    104c:	0072                	c.slli	zero,0x1c
    104e:	0601                	addi	a2,a2,0
    1050:	0010                	.insn	2, 0x0010
    1052:	4800                	lw	s0,16(s0)
    1054:	03a4                	addi	s1,sp,456
    1056:	0000                	unimp
    1058:	5e01                	li	t3,-32
    105a:	ab36                	fsd	fa3,400(sp)
    105c:	0000                	unimp
    105e:	0100                	addi	s0,sp,128
    1060:	005a                	c.slli	zero,0x16
    1062:	0141                	addi	sp,sp,16
    1064:	0000032b          	.insn	4, 0x032b
    1068:	4e01                	li	t3,0
    106a:	0106                	slli	sp,sp,0x1
    106c:	0282                	c.slli64	t0
    106e:	8000                	.insn	2, 0x8000
    1070:	0000                	unimp
    1072:	0000                	unimp
    1074:	02c8                	addi	a0,sp,324
    1076:	8000                	.insn	2, 0x8000
    1078:	0000                	unimp
    107a:	0000                	unimp
    107c:	7202                	ld	tp,32(sp)
    107e:	0100                	addi	s0,sp,128
    1080:	000010cf          	fnmadd.s	ft1,ft0,ft0,ft0,rtz
    1084:	1f48                	addi	a0,sp,948
    1086:	0001                	nop
    1088:	0100                	addi	s0,sp,128
    108a:	134e                	slli	t1,t1,0x33
    108c:	0055                	c.nop	21
    108e:	0000                	unimp
    1090:	5a01                	li	s4,-32
    1092:	01006923          	.insn	4, 0x01006923
    1096:	0750                	addi	a2,sp,900
    1098:	0055                	c.nop	21
    109a:	0000                	unimp
    109c:	1edf 0000 8216      	.insn	6, 0x821600001edf
    10a2:	0002                	c.slli64	zero
    10a4:	0080                	addi	s0,sp,64
    10a6:	0000                	unimp
    10a8:	a600                	fsd	fs0,8(a2)
    10aa:	0002                	c.slli64	zero
    10ac:	0080                	addi	s0,sp,64
    10ae:	0000                	unimp
    10b0:	8c00                	.insn	2, 0x8c00
    10b2:	0010                	.insn	2, 0x0010
    10b4:	2300                	fld	fs0,0(a4)
    10b6:	00727363          	bgeu	tp,t2,10bc <_start-0x7fffef44>
    10ba:	5801                	li	a6,-32
    10bc:	0000ab03          	lw	s6,0(ra)
    10c0:	2b00                	fld	fs0,16(a4)
    10c2:	001f 1700 0282      	.insn	6, 0x02821700001f
    10c8:	8000                	.insn	2, 0x8000
    10ca:	0000                	unimp
    10cc:	0000                	unimp
    10ce:	0286                	slli	t0,t0,0x1
    10d0:	8000                	.insn	2, 0x8000
    10d2:	0000                	unimp
    10d4:	0000                	unimp
    10d6:	0001573b          	srlw	a4,sp,zero
    10da:	0100                	addi	s0,sp,128
    10dc:	0358                	addi	a4,sp,388
    10de:	0076                	c.slli	zero,0x1d
    10e0:	0000                	unimp
    10e2:	1f69                	addi	t5,t5,-6
    10e4:	0000                	unimp
    10e6:	0000                	unimp
    10e8:	0002a617          	auipc	a2,0x2a
    10ec:	0080                	addi	s0,sp,64
    10ee:	0000                	unimp
    10f0:	c600                	sw	s0,8(a2)
    10f2:	0002                	c.slli64	zero
    10f4:	0080                	addi	s0,sp,64
    10f6:	0000                	unimp
    10f8:	3800                	fld	fs0,48(s0)
    10fa:	00727363          	bgeu	tp,t2,1100 <_start-0x7fffef00>
    10fe:	5901                	li	s2,-32
    1100:	0000ab03          	lw	s6,0(ra)
    1104:	0100                	addi	s0,sp,128
    1106:	175f 02a6 8000      	.insn	6, 0x800002a6175f
    110c:	0000                	unimp
    110e:	0000                	unimp
    1110:	02aa                	slli	t0,t0,0xa
    1112:	8000                	.insn	2, 0x8000
    1114:	0000                	unimp
    1116:	0000                	unimp
    1118:	0001573b          	srlw	a4,sp,zero
    111c:	0100                	addi	s0,sp,128
    111e:	0359                	addi	t1,t1,22 # fffffffffffe0016 <__global_pointer$+0xffffffff7ffde7ce>
    1120:	0076                	c.slli	zero,0x1d
    1122:	0000                	unimp
    1124:	1f8c                	addi	a1,sp,1008
    1126:	0000                	unimp
    1128:	0000                	unimp
    112a:	1900                	addi	s0,sp,176
    112c:	aa01                	j	123c <_start-0x7fffedc4>
    112e:	0002                	c.slli64	zero
    1130:	0100                	addi	s0,sp,128
    1132:	062e                	slli	a2,a2,0xb
    1134:	e401                	bnez	s0,113c <_start-0x7fffeec4>
    1136:	0000                	unimp
    1138:	6000                	ld	s0,0(s0)
    113a:	0002                	c.slli64	zero
    113c:	0080                	addi	s0,sp,64
    113e:	0000                	unimp
    1140:	8200                	.insn	2, 0x8200
    1142:	0002                	c.slli64	zero
    1144:	0080                	addi	s0,sp,64
    1146:	0000                	unimp
    1148:	af00                	fsd	fs0,24(a4)
    114a:	001f 0100 1114      	.insn	6, 0x11140100001f
    1150:	0000                	unimp
    1152:	7322                	ld	t1,40(sp)
    1154:	7274                	ld	a3,224(a2)
    1156:	0100                	addi	s0,sp,128
    1158:	1d2e                	slli	s10,s10,0x2b
    115a:	00f0                	addi	a2,sp,76
    115c:	0000                	unimp
    115e:	00001ffb          	.insn	4, 0x1ffb
    1162:	7449                	lui	s0,0xffff2
    1164:	0002                	c.slli64	zero
    1166:	0080                	addi	s0,sp,64
    1168:	0000                	unimp
    116a:	6100                	ld	s0,0(a0)
    116c:	0011                	c.nop	4
    116e:	0000                	unimp
    1170:	0112                	slli	sp,sp,0x4
    1172:	00000133          	add	sp,zero,zero
    1176:	2601                	sext.w	a2,a2
    1178:	0106                	slli	sp,sp,0x1
    117a:	00e4                	addi	s1,sp,76
    117c:	0000                	unimp
    117e:	0248                	addi	a0,sp,260
    1180:	8000                	.insn	2, 0x8000
    1182:	0000                	unimp
    1184:	0000                	unimp
    1186:	0260                	addi	s0,sp,268
    1188:	8000                	.insn	2, 0x8000
    118a:	0000                	unimp
    118c:	0000                	unimp
    118e:	7202                	ld	tp,32(sp)
    1190:	0100                	addi	s0,sp,128
    1192:	0000115b          	.insn	4, 0x115b
    1196:	b34a                	fsd	fs2,416(sp)
    1198:	01000003          	lb	zero,16(zero) # 10 <_start-0x7ffffff0>
    119c:	115b1527          	.insn	4, 0x115b1527
    11a0:	0000                	unimp
    11a2:	0000                	unimp
    11a4:	1000                	addi	s0,sp,32
    11a6:	494a                	lw	s2,144(sp)
    11a8:	0001                	nop
    11aa:	0100                	addi	s0,sp,128
    11ac:	1528                	addi	a0,sp,680
    11ae:	0000115b          	.insn	4, 0x115b
    11b2:	0005                	c.nop	1
    11b4:	1000                	addi	s0,sp,32
    11b6:	0900                	addi	s0,sp,144
    11b8:	9508                	.insn	2, 0x9508
    11ba:	0000                	unimp
    11bc:	4100                	lw	s0,0(a0)
    11be:	5d01                	li	s10,-32
    11c0:	0001                	nop
    11c2:	0100                	addi	s0,sp,128
    11c4:	061e                	slli	a2,a2,0x7
    11c6:	1a01                	addi	s4,s4,-32
    11c8:	0002                	c.slli64	zero
    11ca:	0080                	addi	s0,sp,64
    11cc:	0000                	unimp
    11ce:	3400                	fld	fs0,40(s0)
    11d0:	0002                	c.slli64	zero
    11d2:	0080                	addi	s0,sp,64
    11d4:	0000                	unimp
    11d6:	0200                	addi	s0,sp,256
    11d8:	0072                	c.slli	zero,0x1c
    11da:	b001                	j	9da <_start-0x7ffff626>
    11dc:	0011                	c.nop	4
    11de:	4200                	lw	s0,0(a2)
    11e0:	1e010063          	beqz	sp,13c0 <_start-0x7fffec40>
    11e4:	e414                	sd	a3,8(s0)
    11e6:	0000                	unimp
    11e8:	0100                	addi	s0,sp,128
    11ea:	4a5a                	lw	s4,148(sp)
    11ec:	0196                	slli	gp,gp,0x5
    11ee:	0000                	unimp
    11f0:	1f01                	addi	t5,t5,-32
    11f2:	5b15                	li	s6,-27
    11f4:	0011                	c.nop	4
    11f6:	0000                	unimp
    11f8:	0000                	unimp
    11fa:	4a10                	lw	a2,16(a2)
    11fc:	0149                	addi	sp,sp,18
    11fe:	0000                	unimp
    1200:	2001                	.insn	2, 0x2001
    1202:	5b15                	li	s6,-27
    1204:	0011                	c.nop	4
    1206:	0500                	addi	s0,sp,640
    1208:	0000                	unimp
    120a:	0010                	.insn	2, 0x0010
    120c:	00d50143          	fmadd.s	ft2,fa0,fa3,ft0,rne
    1210:	0000                	unimp
    1212:	1901                	addi	s2,s2,-32
    1214:	0106                	slli	sp,sp,0x1
    1216:	cc01                	beqz	s0,122e <_start-0x7fffedd2>
    1218:	0011                	c.nop	4
    121a:	3500                	fld	fs0,40(a0)
    121c:	00e9                	addi	ra,ra,26
    121e:	0000                	unimp
    1220:	1a01                	addi	s4,s4,-32
    1222:	5b15                	li	s6,-27
    1224:	0011                	c.nop	4
    1226:	0000                	unimp
    1228:	0011b04b          	fnmsub.s	ft0,ft3,ft1,ft0,rup
    122c:	0e00                	addi	s0,sp,784
    122e:	0002                	c.slli64	zero
    1230:	0080                	addi	s0,sp,64
    1232:	0000                	unimp
    1234:	1a00                	addi	s0,sp,304
    1236:	0002                	c.slli64	zero
    1238:	0080                	addi	s0,sp,64
    123a:	0000                	unimp
    123c:	0200                	addi	s0,sp,256
    123e:	0072                	c.slli	zero,0x1c
    1240:	f301                	bnez	a4,1140 <_start-0x7fffeec0>
    1242:	0011                	c.nop	4
    1244:	3f00                	fld	fs0,56(a4)
    1246:	000011bf 10000003 	.insn	8, 0x10000003000011bf
    124e:	4c00                	lw	s0,24(s0)
    1250:	0f4a                	slli	t5,t5,0x12
    1252:	0000                	unimp
    1254:	02e6                	slli	t0,t0,0x19
    1256:	8000                	.insn	2, 0x8000
    1258:	0000                	unimp
    125a:	0000                	unimp
    125c:	02ee                	slli	t0,t0,0x1b
    125e:	8000                	.insn	2, 0x8000
    1260:	0000                	unimp
    1262:	0000                	unimp
    1264:	2031                	.insn	2, 0x2031
    1266:	0000                	unimp
    1268:	3001                	.insn	2, 0x3001
    126a:	0012                	c.slli	zero,0x4
    126c:	2800                	fld	fs0,16(s0)
    126e:	0f5a                	slli	t5,t5,0x16
    1270:	0000                	unimp
    1272:	2069                	.insn	2, 0x2069
    1274:	0000                	unimp
    1276:	ee1e                	sd	t2,280(sp)
    1278:	0002                	c.slli64	zero
    127a:	0080                	addi	s0,sp,64
    127c:	0000                	unimp
    127e:	d400                	sw	s0,40(s0)
    1280:	1f00000f          	.insn	4, 0x1f00000f
    1284:	5a01                	li	s4,-32
    1286:	5a01f303          	.insn	4, 0x5a01f303
    128a:	0000                	unimp
    128c:	da4c                	sw	a1,52(a2)
    128e:	000e                	c.slli	zero,0x3
    1290:	fa00                	sd	s0,48(a2)
    1292:	0002                	c.slli64	zero
    1294:	0080                	addi	s0,sp,64
    1296:	0000                	unimp
    1298:	0800                	addi	s0,sp,16
    129a:	00800003          	lb	zero,8(zero) # 8 <_start-0x7ffffff8>
    129e:	0000                	unimp
    12a0:	a200                	fsd	fs0,0(a2)
    12a2:	0020                	addi	s0,sp,8
    12a4:	0100                	addi	s0,sp,128
    12a6:	126d                	addi	tp,tp,-5 # fffffffffffffffb <__global_pointer$+0xffffffff7fffe7b3>
    12a8:	0000                	unimp
    12aa:	e928                	sd	a0,80(a0)
    12ac:	000e                	c.slli	zero,0x3
    12ae:	ee00                	sd	s0,24(a2)
    12b0:	0020                	addi	s0,sp,8
    12b2:	1e00                	addi	s0,sp,816
    12b4:	0302                	c.slli64	t1
    12b6:	8000                	.insn	2, 0x8000
    12b8:	0000                	unimp
    12ba:	0000                	unimp
    12bc:	000010cf          	fnmadd.s	ft1,ft0,ft0,ft0,rtz
    12c0:	011f 035a 01f3      	.insn	6, 0x01f3035a011f
    12c6:	005a                	c.slli	zero,0x16
    12c8:	4d00                	lw	s0,24(a0)
    12ca:	0101                	addi	sp,sp,0
    12cc:	01d6                	slli	gp,gp,0x15
    12ce:	0000                	unimp
    12d0:	01cc                	addi	a1,sp,196
    12d2:	0000                	unimp
    12d4:	0008                	.insn	2, 0x0008
    12d6:	014d                	addi	sp,sp,19
    12d8:	9201                	srli	a2,a2,0x20
    12da:	0000                	unimp
    12dc:	8800                	.insn	2, 0x8800
    12de:	0000                	unimp
    12e0:	0800                	addi	s0,sp,16
	...

Disassembly of section .debug_abbrev:

0000000000000000 <.debug_abbrev>:
   0:	1101                	addi	sp,sp,-32
   2:	1000                	addi	s0,sp,32
   4:	1106                	slli	sp,sp,0x21
   6:	1201                	addi	tp,tp,-32 # ffffffffffffffe0 <__global_pointer$+0xffffffff7fffe798>
   8:	0301                	addi	t1,t1,0
   a:	1b0e                	slli	s6,s6,0x23
   c:	250e                	fld	fa0,192(sp)
   e:	130e                	slli	t1,t1,0x23
  10:	0005                	c.nop	1
  12:	0000                	unimp
  14:	1101                	addi	sp,sp,-32
  16:	1000                	addi	s0,sp,32
  18:	1106                	slli	sp,sp,0x21
  1a:	1201                	addi	tp,tp,-32 # ffffffffffffffe0 <__global_pointer$+0xffffffff7fffe798>
  1c:	0301                	addi	t1,t1,0
  1e:	1b0e                	slli	s6,s6,0x23
  20:	250e                	fld	fa0,192(sp)
  22:	130e                	slli	t1,t1,0x23
  24:	0005                	c.nop	1
  26:	0000                	unimp
  28:	1101                	addi	sp,sp,-32
  2a:	2501                	sext.w	a0,a0
  2c:	130e                	slli	t1,t1,0x23
  2e:	1b0e030b          	.insn	4, 0x1b0e030b
  32:	110e                	slli	sp,sp,0x23
  34:	1201                	addi	tp,tp,-32 # ffffffffffffffe0 <__global_pointer$+0xffffffff7fffe798>
  36:	1001                	c.nop	-32
  38:	0006                	c.slli	zero,0x1
  3a:	0200                	addi	s0,sp,256
  3c:	0024                	addi	s1,sp,8
  3e:	0b3e0b0b          	.insn	4, 0x0b3e0b0b
  42:	00000e03          	lb	t3,0(zero) # 0 <_start-0x80000000>
  46:	03001603          	lh	a2,48(zero) # 30 <_start-0x7fffffd0>
  4a:	3a0e                	fld	fs4,224(sp)
  4c:	390b3b0b          	.insn	4, 0x390b3b0b
  50:	0013490b          	.insn	4, 0x0013490b
  54:	0400                	addi	s0,sp,512
  56:	0024                	addi	s1,sp,8
  58:	0b3e0b0b          	.insn	4, 0x0b3e0b0b
  5c:	00000803          	lb	a6,0(zero) # 0 <_start-0x80000000>
  60:	3505                	addiw	a0,a0,-31
  62:	4900                	lw	s0,16(a0)
  64:	06000013          	li	zero,96
  68:	0026                	c.slli	zero,0x9
  6a:	1349                	addi	t1,t1,-14
  6c:	0000                	unimp
  6e:	0b000f07          	.insn	4, 0x0b000f07
  72:	0800000b          	.insn	4, 0x0800000b
  76:	0b0b000f          	.insn	4, 0x0b0b000f
  7a:	00000e03          	lb	t3,0(zero) # 0 <_start-0x80000000>
  7e:	0f09                	addi	t5,t5,2
  80:	0b00                	addi	s0,sp,400
  82:	0013490b          	.insn	4, 0x0013490b
  86:	0a00                	addi	s0,sp,272
  88:	0034                	addi	a3,sp,8
  8a:	0b3a0e03          	lb	t3,179(s4)
  8e:	0b390b3b          	.insn	4, 0x0b390b3b
  92:	1349                	addi	t1,t1,-14
  94:	0c3c0c3f 010b0000 	.insn	8, 0x010b00000c3c0c3f
  9c:	4901                	li	s2,0
  9e:	00130113          	addi	sp,t1,1
  a2:	0c00                	addi	s0,sp,528
  a4:	0021                	c.nop	8
  a6:	1349                	addi	t1,t1,-14
  a8:	00000b2f          	.insn	4, 0x0b2f
  ac:	340d                	addiw	s0,s0,-29 # ffffffffffff1fe3 <__global_pointer$+0xffffffff7fff079b>
  ae:	0300                	addi	s0,sp,384
  b0:	3a0e                	fld	fs4,224(sp)
  b2:	390b3b0b          	.insn	4, 0x390b3b0b
  b6:	0213490b          	.insn	4, 0x0213490b
  ba:	000a                	c.slli	zero,0x2
  bc:	0e00                	addi	s0,sp,784
  be:	012e                	slli	sp,sp,0xb
  c0:	0e030c3f 053b0b3a 	.insn	8, 0x053b0b3a0e030c3f
  c8:	0b39                	addi	s6,s6,14
  ca:	13490c27          	.insn	4, 0x13490c27
  ce:	0111                	addi	sp,sp,4
  d0:	0112                	slli	sp,sp,0x4
  d2:	0a40                	addi	s0,sp,276
  d4:	010c4297          	auipc	t0,0x10c4
  d8:	0f000013          	li	zero,240
  dc:	0005                	c.nop	1
  de:	0b3a0803          	lb	a6,179(s4)
  e2:	0b39053b          	.insn	4, 0x0b39053b
  e6:	1349                	addi	t1,t1,-14
  e8:	0602                	c.slli64	a2
  ea:	0000                	unimp
  ec:	3410                	fld	fa2,40(s0)
  ee:	0300                	addi	s0,sp,384
  f0:	3a08                	fld	fa0,48(a2)
  f2:	39053b0b          	.insn	4, 0x39053b0b
  f6:	0213490b          	.insn	4, 0x0213490b
  fa:	0006                	c.slli	zero,0x1
  fc:	1100                	addi	s0,sp,160
  fe:	0034                	addi	a3,sp,8
 100:	0b3a0e03          	lb	t3,179(s4)
 104:	0b39053b          	.insn	4, 0x0b39053b
 108:	1349                	addi	t1,t1,-14
 10a:	0602                	c.slli64	a2
 10c:	0000                	unimp
 10e:	2e12                	fld	ft8,256(sp)
 110:	3f01                	addiw	t5,t5,-32
 112:	030c                	addi	a1,sp,384
 114:	3a0e                	fld	fs4,224(sp)
 116:	390b3b0b          	.insn	4, 0x390b3b0b
 11a:	490c270b          	.insn	4, 0x490c270b
 11e:	12011113          	.insn	4, 0x12011113
 122:	4001                	c.li	zero,0
 124:	970a                	add	a4,a4,sp
 126:	0c42                	slli	s8,s8,0x10
 128:	1301                	addi	t1,t1,-32
 12a:	0000                	unimp
 12c:	03000513          	li	a0,48
 130:	3a0e                	fld	fs4,224(sp)
 132:	39053b0b          	.insn	4, 0x39053b0b
 136:	0213490b          	.insn	4, 0x0213490b
 13a:	000a                	c.slli	zero,0x2
 13c:	1400                	addi	s0,sp,544
 13e:	0034                	addi	a3,sp,8
 140:	0b3a0803          	lb	a6,179(s4)
 144:	0b39053b          	.insn	4, 0x0b39053b
 148:	1349                	addi	t1,t1,-14
 14a:	0a02                	c.slli64	s4
 14c:	0000                	unimp
 14e:	0515                	addi	a0,a0,5
 150:	0300                	addi	s0,sp,384
 152:	3a0e                	fld	fs4,224(sp)
 154:	39053b0b          	.insn	4, 0x39053b0b
 158:	0213490b          	.insn	4, 0x0213490b
 15c:	0006                	c.slli	zero,0x1
 15e:	1600                	addi	s0,sp,800
 160:	0111010b          	.insn	4, 0x0111010b
 164:	0112                	slli	sp,sp,0x4
 166:	1301                	addi	t1,t1,-32
 168:	0000                	unimp
 16a:	11010b17          	auipc	s6,0x11010
 16e:	1201                	addi	tp,tp,-32 # ffffffffffffffe0 <__global_pointer$+0xffffffff7fffe798>
 170:	0001                	nop
 172:	1800                	addi	s0,sp,48
 174:	0026                	c.slli	zero,0x9
 176:	0000                	unimp
 178:	2e19                	addiw	t3,t3,6
 17a:	3f01                	addiw	t5,t5,-32
 17c:	030c                	addi	a1,sp,384
 17e:	3a0e                	fld	fs4,224(sp)
 180:	390b3b0b          	.insn	4, 0x390b3b0b
 184:	490c270b          	.insn	4, 0x490c270b
 188:	12011113          	.insn	4, 0x12011113
 18c:	4001                	c.li	zero,0
 18e:	9706                	add	a4,a4,ra
 190:	0c42                	slli	s8,s8,0x10
 192:	1301                	addi	t1,t1,-32
 194:	0000                	unimp
 196:	181a                	slli	a6,a6,0x26
 198:	0000                	unimp
 19a:	1b00                	addi	s0,sp,432
 19c:	012e                	slli	sp,sp,0xb
 19e:	0b3a0e03          	lb	t3,179(s4)
 1a2:	0b39053b          	.insn	4, 0x0b39053b
 1a6:	01110c27          	.insn	4, 0x01110c27
 1aa:	0112                	slli	sp,sp,0x4
 1ac:	0a40                	addi	s0,sp,276
 1ae:	010c4297          	auipc	t0,0x10c4
 1b2:	1c000013          	li	zero,448
 1b6:	0005                	c.nop	1
 1b8:	0b3a0803          	lb	a6,179(s4)
 1bc:	0b39053b          	.insn	4, 0x0b39053b
 1c0:	1349                	addi	t1,t1,-14
 1c2:	0a02                	c.slli64	s4
 1c4:	0000                	unimp
 1c6:	341d                	addiw	s0,s0,-25
 1c8:	0300                	addi	s0,sp,384
 1ca:	3a0e                	fld	fs4,224(sp)
 1cc:	39053b0b          	.insn	4, 0x39053b0b
 1d0:	0213490b          	.insn	4, 0x0213490b
 1d4:	000a                	c.slli	zero,0x2
 1d6:	1e00                	addi	s0,sp,816
 1d8:	8289                	srli	a3,a3,0x2
 1da:	0101                	addi	sp,sp,0
 1dc:	0111                	addi	sp,sp,4
 1de:	1331                	addi	t1,t1,-20
 1e0:	0000                	unimp
 1e2:	8a1f 0182 0200      	.insn	6, 0x020001828a1f
 1e8:	910a                	add	sp,sp,sp
 1ea:	0a42                	slli	s4,s4,0x10
 1ec:	0000                	unimp
 1ee:	2e20                	fld	fs0,88(a2)
 1f0:	0301                	addi	t1,t1,0
 1f2:	3a0e                	fld	fs4,224(sp)
 1f4:	390b3b0b          	.insn	4, 0x390b3b0b
 1f8:	110c270b          	.insn	4, 0x110c270b
 1fc:	1201                	addi	tp,tp,-32 # ffffffffffffffe0 <__global_pointer$+0xffffffff7fffe798>
 1fe:	4001                	c.li	zero,0
 200:	9706                	add	a4,a4,ra
 202:	0c42                	slli	s8,s8,0x10
 204:	1301                	addi	t1,t1,-32
 206:	0000                	unimp
 208:	0521                	addi	a0,a0,8
 20a:	0300                	addi	s0,sp,384
 20c:	3a0e                	fld	fs4,224(sp)
 20e:	390b3b0b          	.insn	4, 0x390b3b0b
 212:	0213490b          	.insn	4, 0x0213490b
 216:	0006                	c.slli	zero,0x1
 218:	2200                	fld	fs0,0(a2)
 21a:	0005                	c.nop	1
 21c:	0b3a0803          	lb	a6,179(s4)
 220:	0b390b3b          	.insn	4, 0x0b390b3b
 224:	1349                	addi	t1,t1,-14
 226:	0602                	c.slli64	a2
 228:	0000                	unimp
 22a:	03003423          	sd	a6,40(zero) # 28 <_start-0x7fffffd8>
 22e:	3a08                	fld	fa0,48(a2)
 230:	390b3b0b          	.insn	4, 0x390b3b0b
 234:	0213490b          	.insn	4, 0x0213490b
 238:	0006                	c.slli	zero,0x1
 23a:	2400                	fld	fs0,8(s0)
 23c:	0034                	addi	a3,sp,8
 23e:	0b3a0803          	lb	a6,179(s4)
 242:	0b39053b          	.insn	4, 0x0b39053b
 246:	1349                	addi	t1,t1,-14
 248:	0000                	unimp
 24a:	0a25                	addi	s4,s4,9
 24c:	0300                	addi	s0,sp,384
 24e:	3a0e                	fld	fs4,224(sp)
 250:	39053b0b          	.insn	4, 0x39053b0b
 254:	2600000b          	.insn	4, 0x2600000b
 258:	000a                	c.slli	zero,0x2
 25a:	0b3a0e03          	lb	t3,179(s4)
 25e:	0b39053b          	.insn	4, 0x0b39053b
 262:	0111                	addi	sp,sp,4
 264:	0000                	unimp
 266:	31011d27          	.insn	4, 0x31011d27
 26a:	55015213          	.insn	4, 0x55015213
 26e:	5806                	lw	a6,96(sp)
 270:	5705590b          	.insn	4, 0x5705590b
 274:	0013010b          	.insn	4, 0x0013010b
 278:	2800                	fld	fs0,16(s0)
 27a:	0005                	c.nop	1
 27c:	1331                	addi	t1,t1,-20
 27e:	0602                	c.slli64	a2
 280:	0000                	unimp
 282:	0b29                	addi	s6,s6,10 # 11010174 <_start-0x6efefe8c>
 284:	5501                	li	a0,-32
 286:	0006                	c.slli	zero,0x1
 288:	2a00                	fld	fs0,16(a2)
 28a:	0034                	addi	a3,sp,8
 28c:	1331                	addi	t1,t1,-20
 28e:	0a02                	c.slli64	s4
 290:	0000                	unimp
 292:	3100342b          	.insn	4, 0x3100342b
 296:	00060213          	mv	tp,a2
 29a:	2c00                	fld	fs0,24(s0)
 29c:	8289                	srli	a3,a3,0x2
 29e:	0101                	addi	sp,sp,0
 2a0:	0111                	addi	sp,sp,4
 2a2:	1301                	addi	t1,t1,-32
 2a4:	0000                	unimp
 2a6:	892d                	andi	a0,a0,11
 2a8:	0182                	c.slli64	gp
 2aa:	1101                	addi	sp,sp,-32
 2ac:	0001                	nop
 2ae:	2e00                	fld	fs0,24(a2)
 2b0:	8289                	srli	a3,a3,0x2
 2b2:	0101                	addi	sp,sp,0
 2b4:	0111                	addi	sp,sp,4
 2b6:	1331                	addi	t1,t1,-20
 2b8:	1301                	addi	t1,t1,-32
 2ba:	0000                	unimp
 2bc:	2701152f          	.insn	4, 0x2701152f
 2c0:	010c                	addi	a1,sp,128
 2c2:	30000013          	li	zero,768
 2c6:	0005                	c.nop	1
 2c8:	1349                	addi	t1,t1,-14
 2ca:	0000                	unimp
 2cc:	2e31                	addiw	t3,t3,12
 2ce:	0301                	addi	t1,t1,0
 2d0:	3a0e                	fld	fs4,224(sp)
 2d2:	390b3b0b          	.insn	4, 0x390b3b0b
 2d6:	490c270b          	.insn	4, 0x490c270b
 2da:	010b2013          	slti	zero,s6,16
 2de:	32000013          	li	zero,800
 2e2:	0005                	c.nop	1
 2e4:	0b3a0803          	lb	a6,179(s4)
 2e8:	0b390b3b          	.insn	4, 0x0b390b3b
 2ec:	1349                	addi	t1,t1,-14
 2ee:	0000                	unimp
 2f0:	03000533          	mul	a0,zero,a6
 2f4:	3a0e                	fld	fs4,224(sp)
 2f6:	390b3b0b          	.insn	4, 0x390b3b0b
 2fa:	0013490b          	.insn	4, 0x0013490b
 2fe:	3400                	fld	fs0,40(s0)
 300:	012e                	slli	sp,sp,0xb
 302:	0b3a0e03          	lb	t3,179(s4)
 306:	0b390b3b          	.insn	4, 0x0b390b3b
 30a:	0b200c27          	.insn	4, 0x0b200c27
 30e:	1301                	addi	t1,t1,-32
 310:	0000                	unimp
 312:	3435                	addiw	s0,s0,-19
 314:	0300                	addi	s0,sp,384
 316:	3a0e                	fld	fs4,224(sp)
 318:	390b3b0b          	.insn	4, 0x390b3b0b
 31c:	0013490b          	.insn	4, 0x0013490b
 320:	3600                	fld	fs0,40(a2)
 322:	0034                	addi	a3,sp,8
 324:	0b3a0803          	lb	a6,179(s4)
 328:	0b390b3b          	.insn	4, 0x0b390b3b
 32c:	1349                	addi	t1,t1,-14
 32e:	0000                	unimp
 330:	3f012e37          	lui	t3,0x3f012
 334:	030c                	addi	a1,sp,384
 336:	3a0e                	fld	fs4,224(sp)
 338:	390b3b0b          	.insn	4, 0x390b3b0b
 33c:	110c270b          	.insn	4, 0x110c270b
 340:	1201                	addi	tp,tp,-32 # ffffffffffffffe0 <__global_pointer$+0xffffffff7fffe798>
 342:	4001                	c.li	zero,0
 344:	9706                	add	a4,a4,ra
 346:	0c42                	slli	s8,s8,0x10
 348:	1301                	addi	t1,t1,-32
 34a:	0000                	unimp
 34c:	3438                	fld	fa4,104(s0)
 34e:	0300                	addi	s0,sp,384
 350:	3a08                	fld	fa0,48(a2)
 352:	390b3b0b          	.insn	4, 0x390b3b0b
 356:	0213490b          	.insn	4, 0x0213490b
 35a:	000a                	c.slli	zero,0x2
 35c:	3900                	fld	fs0,48(a0)
 35e:	011d                	addi	sp,sp,7
 360:	1331                	addi	t1,t1,-20
 362:	0111                	addi	sp,sp,4
 364:	0112                	slli	sp,sp,0x4
 366:	0b58                	addi	a4,sp,404
 368:	0b59                	addi	s6,s6,22
 36a:	00000b57          	.insn	4, 0x0b57
 36e:	343a                	fld	fs0,424(sp)
 370:	0300                	addi	s0,sp,384
 372:	3a08                	fld	fa0,48(a2)
 374:	390b3b0b          	.insn	4, 0x390b3b0b
 378:	8813490b          	.insn	4, 0x8813490b
 37c:	0b01                	addi	s6,s6,0
 37e:	0a02                	c.slli64	s4
 380:	0000                	unimp
 382:	0300343b          	.insn	4, 0x0300343b
 386:	3a0e                	fld	fs4,224(sp)
 388:	390b3b0b          	.insn	4, 0x390b3b0b
 38c:	0213490b          	.insn	4, 0x0213490b
 390:	0006                	c.slli	zero,0x1
 392:	3c00                	fld	fs0,56(s0)
 394:	0655010b          	.insn	4, 0x0655010b
 398:	1301                	addi	t1,t1,-32
 39a:	0000                	unimp
 39c:	1d3d                	addi	s10,s10,-17
 39e:	3101                	addiw	sp,sp,-32
 3a0:	12011113          	.insn	4, 0x12011113
 3a4:	5801                	li	a6,-32
 3a6:	570b590b          	.insn	4, 0x570b590b
 3aa:	0013010b          	.insn	4, 0x0013010b
 3ae:	3e00                	fld	fs0,56(a2)
 3b0:	0034                	addi	a3,sp,8
 3b2:	1331                	addi	t1,t1,-20
 3b4:	0c3c                	addi	a5,sp,536
 3b6:	0000                	unimp
 3b8:	3100343f 00061c13 	.insn	8, 0x00061c133100343f
 3c0:	4000                	lw	s0,0(s0)
 3c2:	012e                	slli	sp,sp,0xb
 3c4:	0b3a0e03          	lb	t3,179(s4)
 3c8:	0b390b3b          	.insn	4, 0x0b390b3b
 3cc:	0b20                	addi	s0,sp,408
 3ce:	1301                	addi	t1,t1,-32
 3d0:	0000                	unimp
 3d2:	2e41                	addiw	t3,t3,16 # 3f012010 <_start-0x40fedff0>
 3d4:	3f01                	addiw	t5,t5,-32
 3d6:	030c                	addi	a1,sp,384
 3d8:	3a0e                	fld	fs4,224(sp)
 3da:	390b3b0b          	.insn	4, 0x390b3b0b
 3de:	110c270b          	.insn	4, 0x110c270b
 3e2:	1201                	addi	tp,tp,-32 # ffffffffffffffe0 <__global_pointer$+0xffffffff7fffe798>
 3e4:	4001                	c.li	zero,0
 3e6:	970a                	add	a4,a4,sp
 3e8:	0c42                	slli	s8,s8,0x10
 3ea:	1301                	addi	t1,t1,-32
 3ec:	0000                	unimp
 3ee:	0542                	slli	a0,a0,0x10
 3f0:	0300                	addi	s0,sp,384
 3f2:	3a08                	fld	fa0,48(a2)
 3f4:	390b3b0b          	.insn	4, 0x390b3b0b
 3f8:	0213490b          	.insn	4, 0x0213490b
 3fc:	000a                	c.slli	zero,0x2
 3fe:	4300                	lw	s0,0(a4)
 400:	012e                	slli	sp,sp,0xb
 402:	0e030c3f 0b3b0b3a 	.insn	8, 0x0b3b0b3a0e030c3f
 40a:	0b39                	addi	s6,s6,14
 40c:	0b200c27          	.insn	4, 0x0b200c27
 410:	1301                	addi	t1,t1,-32
 412:	0000                	unimp
 414:	2e44                	fld	fs1,152(a2)
 416:	3f01                	addiw	t5,t5,-32
 418:	030c                	addi	a1,sp,384
 41a:	3a0e                	fld	fs4,224(sp)
 41c:	390b3b0b          	.insn	4, 0x390b3b0b
 420:	1201110b          	.insn	4, 0x1201110b
 424:	4001                	c.li	zero,0
 426:	9706                	add	a4,a4,ra
 428:	0c42                	slli	s8,s8,0x10
 42a:	1301                	addi	t1,t1,-32
 42c:	0000                	unimp
 42e:	0545                	addi	a0,a0,17
 430:	3100                	fld	fs0,32(a0)
 432:	000b1c13          	slli	s8,s6,0x0
 436:	4600                	lw	s0,8(a2)
 438:	012e                	slli	sp,sp,0xb
 43a:	0e030c3f 0b3b0b3a 	.insn	8, 0x0b3b0b3a0e030c3f
 442:	0b39                	addi	s6,s6,14
 444:	01870c27          	.insn	4, 0x01870c27
 448:	200c                	fld	fa1,0(s0)
 44a:	0013010b          	.insn	4, 0x0013010b
 44e:	4700                	lw	s0,8(a4)
 450:	012e                	slli	sp,sp,0xb
 452:	0e030c3f 0b3b0b3a 	.insn	8, 0x0b3b0b3a0e030c3f
 45a:	0b39                	addi	s6,s6,14
 45c:	01870c27          	.insn	4, 0x01870c27
 460:	110c                	addi	a1,sp,160
 462:	1201                	addi	tp,tp,-32 # ffffffffffffffe0 <__global_pointer$+0xffffffff7fffe798>
 464:	4001                	c.li	zero,0
 466:	970a                	add	a4,a4,sp
 468:	0c42                	slli	s8,s8,0x10
 46a:	1301                	addi	t1,t1,-32
 46c:	0000                	unimp
 46e:	0548                	addi	a0,sp,644
 470:	0300                	addi	s0,sp,384
 472:	3a0e                	fld	fs4,224(sp)
 474:	390b3b0b          	.insn	4, 0x390b3b0b
 478:	0213490b          	.insn	4, 0x0213490b
 47c:	000a                	c.slli	zero,0x2
 47e:	4900                	lw	s0,16(a0)
 480:	8289                	srli	a3,a3,0x2
 482:	0001                	nop
 484:	0111                	addi	sp,sp,4
 486:	1331                	addi	t1,t1,-20
 488:	0000                	unimp
 48a:	344a                	fld	fs0,176(sp)
 48c:	0300                	addi	s0,sp,384
 48e:	3a0e                	fld	fs4,224(sp)
 490:	390b3b0b          	.insn	4, 0x390b3b0b
 494:	1c13490b          	.insn	4, 0x1c13490b
 498:	0006                	c.slli	zero,0x1
 49a:	4b00                	lw	s0,16(a4)
 49c:	012e                	slli	sp,sp,0xb
 49e:	1331                	addi	t1,t1,-20
 4a0:	0111                	addi	sp,sp,4
 4a2:	0112                	slli	sp,sp,0x4
 4a4:	0a40                	addi	s0,sp,276
 4a6:	010c4297          	auipc	t0,0x10c4
 4aa:	4c000013          	li	zero,1216
 4ae:	012e                	slli	sp,sp,0xb
 4b0:	1331                	addi	t1,t1,-20
 4b2:	0111                	addi	sp,sp,4
 4b4:	0112                	slli	sp,sp,0x4
 4b6:	0640                	addi	s0,sp,772
 4b8:	010c4297          	auipc	t0,0x10c4
 4bc:	4d000013          	li	zero,1232
 4c0:	002e                	c.slli	zero,0xb
 4c2:	0c3c0c3f 030e4087 	.insn	8, 0x030e40870c3c0c3f
 4ca:	3a0e                	fld	fs4,224(sp)
 4cc:	000b3b0b          	.insn	4, 0x000b3b0b
	...

Disassembly of section .debug_aranges:

0000000000000000 <.debug_aranges>:
   0:	002c                	addi	a1,sp,8
   2:	0000                	unimp
   4:	0002                	c.slli64	zero
   6:	0000                	unimp
   8:	0000                	unimp
   a:	0008                	.insn	2, 0x0008
   c:	0000                	unimp
   e:	0000                	unimp
  10:	01c2                	slli	gp,gp,0x10
  12:	8000                	.insn	2, 0x8000
  14:	0000                	unimp
  16:	0000                	unimp
  18:	003e                	c.slli	zero,0xf
	...
  2e:	0000                	unimp
  30:	002c                	addi	a1,sp,8
  32:	0000                	unimp
  34:	0002                	c.slli64	zero
  36:	002e                	c.slli	zero,0xb
  38:	0000                	unimp
  3a:	0008                	.insn	2, 0x0008
  3c:	0000                	unimp
  3e:	0000                	unimp
  40:	0000                	unimp
  42:	8000                	.insn	2, 0x8000
  44:	0000                	unimp
  46:	0000                	unimp
  48:	01c0                	addi	s0,sp,196
	...
  5e:	0000                	unimp
  60:	002c                	addi	a1,sp,8
  62:	0000                	unimp
  64:	0002                	c.slli64	zero
  66:	005c                	addi	a5,sp,4
  68:	0000                	unimp
  6a:	0008                	.insn	2, 0x0008
  6c:	0000                	unimp
  6e:	0000                	unimp
  70:	0200                	addi	s0,sp,256
  72:	8000                	.insn	2, 0x8000
  74:	0000                	unimp
  76:	0000                	unimp
  78:	06c0                	addi	s0,sp,836
	...

Disassembly of section .debug_str:

0000000000000000 <.debug_str>:
   0:	6966                	ld	s2,88(sp)
   2:	3172                	fld	ft2,312(sp)
   4:	532e                	lw	t1,232(sp)
   6:	2f00                	fld	fs0,24(a4)
   8:	6f68                	ld	a0,216(a4)
   a:	656d                	lui	a0,0x1b
   c:	2d32312f          	.insn	4, 0x2d32312f
  10:	706d6f63          	bltu	s10,t1,72e <_start-0x7ffff8d2>
  14:	612d                	addi	sp,sp,224
  16:	6372                	ld	t1,280(sp)
  18:	2d68                	fld	fa0,216(a0)
  1a:	76632f77          	.insn	4, 0x76632f77
  1e:	78652f77          	.insn	4, 0x78652f77
  22:	6d61                	lui	s10,0x18
  24:	6c70                	ld	a2,216(s0)
  26:	7365                	lui	t1,0xffff9
  28:	662f432f          	.insn	4, 0x662f432f
  2c:	7269                	lui	tp,0xffffa
  2e:	0032                	c.slli	zero,0xc
  30:	20554e47          	fmsub.s	ft8,fa0,ft5,ft4,rmm
  34:	5341                	li	t1,-16
  36:	3220                	fld	fs0,96(a2)
  38:	342e                	fld	fs0,232(sp)
  3a:	00312e33          	slt	t3,sp,gp
  3e:	2e2e                	fld	ft8,200(sp)
  40:	6d6f632f          	.insn	4, 0x6d6f632f
  44:	6f6d                	lui	t5,0x1b
  46:	2f6e                	fld	ft10,216(sp)
  48:	2e747263          	bgeu	s0,t2,32c <_start-0x7ffffcd4>
  4c:	75700053          	.insn	4, 0x75700053
  50:	6474                	ld	a3,200(s0)
  52:	7461                	lui	s0,0xffff8
  54:	7300                	ld	s0,32(a4)
  56:	7274                	ld	a3,224(a2)
  58:	00706d63          	bltu	zero,t2,72 <_start-0x7fffff8e>
  5c:	6270                	ld	a2,192(a2)
  5e:	6675                	lui	a2,0x1d
  60:	7300                	ld	s0,32(a4)
  62:	7a69                	lui	s4,0xffffa
  64:	5f65                	li	t5,-7
  66:	0074                	addi	a3,sp,12
  68:	7076                	.insn	2, 0x7076
  6a:	6972                	ld	s2,280(sp)
  6c:	746e                	ld	s0,248(sp)
  6e:	6d66                	ld	s10,88(sp)
  70:	0074                	addi	a3,sp,12
  72:	5f5f 6975 746e      	.insn	6, 0x746e69755f5f
  78:	5f38                	lw	a4,120(a4)
  7a:	0074                	addi	a3,sp,12
  7c:	6168                	ld	a0,192(a0)
  7e:	646e                	ld	s0,216(sp)
  80:	656c                	ld	a1,200(a0)
  82:	745f 6172 0070      	.insn	6, 0x00706172745f
  88:	5f5f 7562 6c69      	.insn	6, 0x6c6975625f5f
  8e:	6974                	ld	a3,208(a0)
  90:	5f6e                	lw	t5,248(sp)
  92:	656d                	lui	a0,0x1b
  94:	736d                	lui	t1,0xffffb
  96:	7465                	lui	s0,0xffff9
  98:	6c00                	ld	s0,24(s0)
  9a:	20676e6f          	jal	t3,762a0 <_start-0x7ff89d60>
  9e:	6f6c                	ld	a1,216(a4)
  a0:	676e                	ld	a4,216(sp)
  a2:	7520                	ld	s0,104(a0)
  a4:	736e                	ld	t1,248(sp)
  a6:	6769                	lui	a4,0x1a
  a8:	656e                	ld	a0,216(sp)
  aa:	2064                	fld	fs1,192(s0)
  ac:	6e69                	lui	t3,0x1a
  ae:	0074                	addi	a3,sp,12
  b0:	6c61                	lui	s8,0x18
  b2:	6674                	ld	a3,200(a2)
  b4:	616c                	ld	a1,192(a0)
  b6:	68740067          	jr	1671(s0) # ffffffffffff9687 <__global_pointer$+0xffffffff7fff7e3f>
  ba:	6572                	ld	a0,280(sp)
  bc:	6461                	lui	s0,0x18
  be:	705f 696f 746e      	.insn	6, 0x746e696f705f
  c4:	7265                	lui	tp,0xffff9
  c6:	6c00                	ld	s0,24(s0)
  c8:	20676e6f          	jal	t3,762ce <_start-0x7ff89d32>
  cc:	6f6c                	ld	a1,216(a4)
  ce:	676e                	ld	a4,216(sp)
  d0:	6920                	ld	s0,80(a0)
  d2:	746e                	ld	s0,248(sp)
  d4:	7500                	ld	s0,40(a0)
  d6:	7261                	lui	tp,0xffff8
  d8:	4974                	lw	a3,84(a0)
  da:	696e                	ld	s2,216(sp)
  dc:	0074                	addi	a3,sp,12
  de:	6474                	ld	a3,200(s0)
  e0:	7461                	lui	s0,0xffff8
  e2:	5f61                	li	t5,-8
  e4:	657a6973          	csrrsi	s2,hviprio2h,20
  e8:	5500                	lw	s0,40(a0)
  ea:	5241                	li	tp,-16
  ec:	5f54                	lw	a3,60(a4)
  ee:	434c                	lw	a1,4(a4)
  f0:	0052                	c.slli	zero,0x14
  f2:	73756163          	bltu	a0,s7,814 <_start-0x7ffff7ec>
  f6:	0065                	c.nop	25
  f8:	745f 6164 6174      	.insn	6, 0x61746164745f
  fe:	625f 6765 6e69      	.insn	6, 0x6e696765625f
 104:	5f00                	lw	s0,56(a4)
 106:	625f 6975 746c      	.insn	6, 0x746c6975625f
 10c:	6e69                	lui	t3,0x1a
 10e:	765f 5f61 696c      	.insn	6, 0x696c5f61765f
 114:	70007473          	csrrci	s0,0x700,0
 118:	7475                	lui	s0,0xffffd
 11a:	72616863          	bltu	sp,t1,84a <_start-0x7ffff7b6>
 11e:	6500                	ld	s0,8(a0)
 120:	616e                	ld	sp,216(sp)
 122:	6c62                	ld	s8,24(sp)
 124:	0065                	c.nop	25
 126:	69727073          	csrci	0x697,4
 12a:	746e                	ld	s0,248(sp)
 12c:	0066                	c.slli	zero,0x19
 12e:	30727473          	csrrci	s0,0x307,4
 132:	7500                	ld	s0,40(a0)
 134:	7261                	lui	tp,0xffff8
 136:	5274                	lw	a3,100(a2)
 138:	6365                	lui	t1,0x19
 13a:	6965                	lui	s2,0x19
 13c:	6576                	ld	a0,344(sp)
 13e:	6d00                	ld	s0,24(a0)
 140:	6961                	lui	s2,0x18
 142:	006e                	c.slli	zero,0x1b
 144:	6964                	ld	s1,208(a0)
 146:	55007367          	.insn	4, 0x55007367
 14a:	5241                	li	tp,-16
 14c:	5f54                	lw	a3,60(a4)
 14e:	534c                	lw	a1,36(a4)
 150:	0052                	c.slli	zero,0x14
 152:	7962                	ld	s2,56(sp)
 154:	6574                	ld	a3,200(a0)
 156:	5f00                	lw	s0,56(a4)
 158:	745f 706d 7500      	.insn	6, 0x7500706d745f
 15e:	7261                	lui	tp,0xffff8
 160:	5374                	lw	a3,100(a4)
 162:	6e65                	lui	t3,0x19
 164:	0064                	addi	s1,sp,12
 166:	7270                	ld	a2,224(a2)
 168:	7365636f          	jal	t1,5689e <_start-0x7ffa9762>
 16c:	72705f73          	csrrwi	t5,mhpmevent7h,0
 170:	6365                	lui	t1,0x19
 172:	7369                	lui	t1,0xffffa
 174:	6f69                	lui	t5,0x1a
 176:	006e                	c.slli	zero,0x1b
 178:	6c727473          	csrrci	s0,0x6c7,4
 17c:	6e65                	lui	t3,0x19
 17e:	7300                	ld	s0,32(a4)
 180:	7270                	ld	a2,224(a2)
 182:	6e69                	lui	t3,0x1a
 184:	6674                	ld	a3,200(a2)
 186:	705f 7475 6863      	.insn	6, 0x68637475705f
 18c:	6900                	ld	s0,16(a0)
 18e:	696e                	ld	s2,216(sp)
 190:	5f74                	lw	a3,124(a4)
 192:	6c74                	ld	a3,216(s0)
 194:	41550073          	.insn	4, 0x41550073
 198:	5452                	lw	s0,52(sp)
 19a:	545f 5248 7700      	.insn	6, 0x77005248545f
 1a0:	6469                	lui	s0,0x1a
 1a2:	6874                	ld	a3,208(s0)
 1a4:	6700                	ld	s0,8(a4)
 1a6:	7465                	lui	s0,0xffff9
 1a8:	6975                	lui	s2,0x1d
 1aa:	746e                	ld	s0,248(sp)
 1ac:	6400                	ld	s0,8(s0)
 1ae:	7461                	lui	s0,0xffff8
 1b0:	0061                	c.nop	24
 1b2:	726f6873          	csrrsi	a6,mhpmevent6h,30
 1b6:	2074                	fld	fa3,192(s0)
 1b8:	6e75                	lui	t3,0x1d
 1ba:	6e676973          	csrrsi	s2,0x6e6,14
 1be:	6465                	lui	s0,0x19
 1c0:	6920                	ld	s0,80(a0)
 1c2:	746e                	ld	s0,248(sp)
 1c4:	7300                	ld	s0,32(a4)
 1c6:	7274                	ld	a3,224(a2)
 1c8:	00797063          	bgeu	s2,t2,1c8 <_start-0x7ffffe38>
 1cc:	5f5f 7562 6c69      	.insn	6, 0x6c6975625f5f
 1d2:	6974                	ld	a3,208(a0)
 1d4:	5f6e                	lw	t5,248(sp)
 1d6:	656d                	lui	a0,0x1b
 1d8:	636d                	lui	t1,0x1b
 1da:	7970                	ld	a2,240(a0)
 1dc:	4700                	lw	s0,8(a4)
 1de:	554e                	lw	a0,240(sp)
 1e0:	4320                	lw	s0,64(a4)
 1e2:	3731                	addiw	a4,a4,-20 # 19fec <_start-0x7ffe6014>
 1e4:	3120                	fld	fs0,96(a0)
 1e6:	2e34                	fld	fa3,88(a2)
 1e8:	2e32                	fld	ft8,264(sp)
 1ea:	2030                	fld	fa2,64(s0)
 1ec:	6d2d                	lui	s10,0xb
 1ee:	6261                	lui	tp,0x18
 1f0:	3d69                	addiw	s10,s10,-6 # affa <_start-0x7fff5006>
 1f2:	706c                	ld	a1,224(s0)
 1f4:	3436                	fld	fs0,360(sp)
 1f6:	2064                	fld	fs1,192(s0)
 1f8:	6d2d                	lui	s10,0xb
 1fa:	646f6d63          	bltu	t5,t1,854 <_start-0x7ffff7ac>
 1fe:	6c65                	lui	s8,0x19
 200:	6d3d                	lui	s10,0xf
 202:	6465                	lui	s0,0x19
 204:	6e61                	lui	t3,0x18
 206:	2079                	.insn	2, 0x2079
 208:	6d2d                	lui	s10,0xb
 20a:	7574                	ld	a3,232(a0)
 20c:	656e                	ld	a0,216(sp)
 20e:	723d                	lui	tp,0xfffef
 210:	656b636f          	jal	t1,b6866 <_start-0x7ff4979a>
 214:	2074                	fld	fa3,192(s0)
 216:	6d2d                	lui	s10,0xb
 218:	7369                	lui	t1,0xffffa
 21a:	2d61                	addiw	s10,s10,24 # b018 <_start-0x7fff4fe8>
 21c:	63657073          	csrci	0x636,10
 220:	323d                	addiw	tp,tp,-17 # fffffffffffeefef <__global_pointer$+0xffffffff7ffed7a7>
 222:	3130                	fld	fa2,96(a0)
 224:	3139                	addiw	sp,sp,-18
 226:	3132                	fld	ft2,296(sp)
 228:	6d2d2033          	.insn	4, 0x6d2d2033
 22c:	7261                	lui	tp,0xffff8
 22e:	723d6863          	bltu	s10,gp,95e <_start-0x7ffff6a2>
 232:	3676                	fld	fa2,376(sp)
 234:	6934                	ld	a3,80(a0)
 236:	616d                	addi	sp,sp,240
 238:	6466                	ld	s0,88(sp)
 23a:	697a5f63          	bge	s4,s7,8d8 <_start-0x7ffff728>
 23e:	5f727363          	bgeu	tp,s7,824 <_start-0x7ffff7dc>
 242:	697a                	ld	s2,408(sp)
 244:	6566                	ld	a0,88(sp)
 246:	636e                	ld	t1,216(sp)
 248:	6965                	lui	s2,0x19
 24a:	2d20                	fld	fs0,88(a0)
 24c:	61776467          	.insn	4, 0x61776467
 250:	6672                	ld	a2,280(sp)
 252:	322d                	addiw	tp,tp,-21 # ffffffffffff7feb <__global_pointer$+0xffffffff7fff67a3>
 254:	2d20                	fld	fs0,88(a0)
 256:	662d204f          	.insn	4, 0x662d204f
 25a:	6f6e                	ld	t5,216(sp)
 25c:	742d                	lui	s0,0xfffeb
 25e:	6572                	ld	a0,280(sp)
 260:	2d65                	addiw	s10,s10,25
 262:	6f6c                	ld	a1,216(a4)
 264:	642d706f          	j	d78a6 <_start-0x7ff2875a>
 268:	7369                	lui	t1,0xffffa
 26a:	7274                	ld	a3,224(a2)
 26c:	6269                	lui	tp,0x1a
 26e:	7475                	lui	s0,0xffffd
 270:	2d65                	addiw	s10,s10,25
 272:	6170                	ld	a2,192(a0)
 274:	7474                	ld	a3,232(s0)
 276:	7265                	lui	tp,0xffff9
 278:	736e                	ld	t1,248(sp)
 27a:	6300                	ld	s0,0(a4)
 27c:	746e756f          	jal	a0,e79c2 <_start-0x7ff1863e>
 280:	7265                	lui	tp,0xffff9
 282:	61620073          	.insn	4, 0x61620073
 286:	70006573          	csrrsi	a0,0x700,0
 28a:	7475                	lui	s0,0xffffd
 28c:	6f6c0073          	.insn	4, 0x6f6c0073
 290:	676e                	ld	a4,216(sp)
 292:	6420                	ld	s0,72(s0)
 294:	6c62756f          	jal	a0,2795a <_start-0x7ffd86a6>
 298:	0065                	c.nop	25
 29a:	6e75                	lui	t3,0x1d
 29c:	6e676973          	csrrsi	s2,0x6e6,14
 2a0:	6465                	lui	s0,0x19
 2a2:	6e5f 6d75 6562      	.insn	6, 0x65626d756e5f
 2a8:	0072                	c.slli	zero,0x1c
 2aa:	6175                	addi	sp,sp,368
 2ac:	7472                	ld	s0,312(sp)
 2ae:	7550                	ld	a2,168(a0)
 2b0:	5374                	lw	a3,100(a4)
 2b2:	7274                	ld	a3,224(a2)
 2b4:	5f00                	lw	s0,56(a4)
 2b6:	675f 756e 5f63      	.insn	6, 0x5f63756e675f
 2bc:	6176                	ld	sp,344(sp)
 2be:	6c5f 7369 0074      	.insn	6, 0x007473696c5f
 2c4:	64726f77          	.insn	4, 0x64726f77
 2c8:	6c00                	ld	s0,24(s0)
 2ca:	6c66                	ld	s8,88(sp)
 2cc:	6761                	lui	a4,0x18
 2ce:	6c00                	ld	s0,24(s0)
 2d0:	7361                	lui	t1,0xffff8
 2d2:	5f74                	lw	a3,124(a4)
 2d4:	6d66                	ld	s10,88(sp)
 2d6:	0074                	addi	a3,sp,12
 2d8:	6564                	ld	s1,200(a0)
 2da:	5f007473          	csrrci	s0,0x5f0,0
 2de:	6274                	ld	a3,192(a2)
 2e0:	655f7373          	csrrci	t1,hviph,30
 2e4:	646e                	ld	s0,216(sp)
 2e6:	5f00                	lw	s0,56(a4)
 2e8:	755f 6e69 3674      	.insn	6, 0x36746e69755f
 2ee:	5f34                	lw	a3,120(a4)
 2f0:	0074                	addi	a3,sp,12
 2f2:	69746567          	.insn	4, 0x69746567
 2f6:	746e                	ld	s0,248(sp)
 2f8:	6100                	ld	s0,0(a0)
 2fa:	6f74                	ld	a3,216(a4)
 2fc:	006c                	addi	a1,sp,12
 2fe:	6e75                	lui	t3,0x1d
 300:	6e676973          	csrrsi	s2,0x6e6,14
 304:	6465                	lui	s0,0x19
 306:	6320                	ld	s0,64(a4)
 308:	6168                	ld	a0,192(a0)
 30a:	0072                	c.slli	zero,0x1c
 30c:	6f74                	ld	a3,216(a4)
 30e:	6f68                	ld	a0,216(a4)
 310:	73007473          	csrrci	s0,mhpmevent16h,0
 314:	6f68                	ld	a0,216(a4)
 316:	7472                	ld	s0,312(sp)
 318:	6920                	ld	s0,80(a0)
 31a:	746e                	ld	s0,248(sp)
 31c:	6300                	ld	s0,0(a4)
 31e:	746e756f          	jal	a0,e7a64 <_start-0x7ff1859c>
 322:	7265                	lui	tp,0xffff9
 324:	6e5f 6d61 7365      	.insn	6, 0x73656d616e5f
 32a:	7300                	ld	s0,32(a4)
 32c:	7465                	lui	s0,0xffff9
 32e:	74617453          	.insn	4, 0x74617453
 332:	5f5f0073          	.insn	4, 0x5f5f0073
 336:	6975                	lui	s2,0x1d
 338:	746e                	ld	s0,248(sp)
 33a:	7470                	ld	a2,232(s0)
 33c:	5f72                	lw	t5,60(sp)
 33e:	0074                	addi	a3,sp,12
 340:	6274                	ld	a3,192(a2)
 342:	735f7373          	csrrci	t1,mhpmevent21h,30
 346:	7a69                	lui	s4,0xffffa
 348:	0065                	c.nop	25
 34a:	6572                	ld	a0,280(sp)
 34c:	70007367          	.insn	4, 0x70007367
 350:	6972                	ld	s2,280(sp)
 352:	746e                	ld	s0,248(sp)
 354:	6568                	ld	a0,200(a0)
 356:	0078                	addi	a4,sp,12
 358:	7270                	ld	a2,224(a2)
 35a:	6e69                	lui	t3,0x1a
 35c:	7374                	ld	a3,224(a4)
 35e:	7274                	ld	a3,224(a2)
 360:	5f00                	lw	s0,56(a4)
 362:	6e69                	lui	t3,0x1a
 364:	7469                	lui	s0,0xffffa
 366:	2e00                	fld	fs0,24(a2)
 368:	2f2e                	fld	ft10,200(sp)
 36a:	6d6d6f63          	bltu	s10,s6,a48 <_start-0x7ffff5b8>
 36e:	732f6e6f          	jal	t3,f6aa0 <_start-0x7ff09560>
 372:	7379                	lui	t1,0xffffe
 374:	6c6c6163          	bltu	s8,t1,a36 <_start-0x7ffff5ca>
 378:	00632e73          	csrrs	t3,0x6,t1
 37c:	7270                	ld	a2,224(a2)
 37e:	6e69                	lui	t3,0x1a
 380:	6e74                	ld	a3,216(a2)
 382:	6d75                	lui	s10,0x1d
 384:	6100                	ld	s0,0(a0)
 386:	6f62                	ld	t5,24(sp)
 388:	7472                	ld	s0,312(sp)
 38a:	5f00                	lw	s0,56(a4)
 38c:	6474                	ld	a3,200(s0)
 38e:	7461                	lui	s0,0xffff8
 390:	5f61                	li	t5,-8
 392:	6e65                	lui	t3,0x19
 394:	0064                	addi	s1,sp,12
 396:	7370                	ld	a2,224(a4)
 398:	7274                	ld	a3,224(a2)
 39a:	7200                	ld	s0,32(a2)
 39c:	7365                	lui	t1,0xffff9
 39e:	63746977          	.insn	4, 0x63746977
 3a2:	0068                	addi	a0,sp,12
 3a4:	65646f63          	bltu	s0,s6,a02 <_start-0x7ffff5fe>
 3a8:	7300                	ld	s0,32(a4)
 3aa:	6769                	lui	a4,0x1a
 3ac:	006e                	c.slli	zero,0x1b
 3ae:	7261                	lui	tp,0xffff8
 3b0:	55006367          	.insn	4, 0x55006367
 3b4:	5241                	li	tp,-16
 3b6:	5f54                	lw	a3,60(a4)
 3b8:	4252                	lw	tp,20(sp)
 3ba:	0052                	c.slli	zero,0x14
 3bc:	6170                	ld	a2,192(a0)
 3be:	6364                	ld	s1,192(a4)
 3c0:	6100                	ld	s0,0(a0)
 3c2:	6772                	ld	a4,280(sp)
 3c4:	0076                	c.slli	zero,0x1d
 3c6:	6e727473          	csrrci	s0,0x6e7,4
 3ca:	656c                	ld	a1,200(a0)
 3cc:	006e                	c.slli	zero,0x1b
 3ce:	6f74                	ld	a3,216(a4)
 3d0:	6f68                	ld	a0,216(a4)
 3d2:	655f7473          	csrrci	s0,hviph,30
 3d6:	6978                	ld	a4,208(a0)
 3d8:	0074                	addi	a3,sp,12
 3da:	6874                	ld	a3,208(s0)
 3dc:	6572                	ld	a0,280(sp)
 3de:	6461                	lui	s0,0x18
 3e0:	655f 746e 7972      	.insn	6, 0x7972746e655f
	...

Disassembly of section .debug_loc:

0000000000000000 <.debug_loc>:
       0:	065a                	slli	a2,a2,0x16
       2:	0000                	unimp
       4:	0000                	unimp
       6:	0000                	unimp
       8:	0668                	addi	a0,sp,780
       a:	0000                	unimp
       c:	0000                	unimp
       e:	0000                	unimp
      10:	0001                	nop
      12:	685a                	ld	a6,400(sp)
      14:	0006                	c.slli	zero,0x1
      16:	0000                	unimp
      18:	0000                	unimp
      1a:	8600                	.insn	2, 0x8600
      1c:	0006                	c.slli	zero,0x1
      1e:	0000                	unimp
      20:	0000                	unimp
      22:	0100                	addi	s0,sp,128
      24:	5a00                	lw	s0,48(a2)
      26:	0686                	slli	a3,a3,0x1
      28:	0000                	unimp
      2a:	0000                	unimp
      2c:	0000                	unimp
      2e:	0688                	addi	a0,sp,832
      30:	0000                	unimp
      32:	0000                	unimp
      34:	0000                	unimp
      36:	0001                	nop
      38:	885d                	andi	s0,s0,23
      3a:	0006                	c.slli	zero,0x1
      3c:	0000                	unimp
      3e:	0000                	unimp
      40:	9400                	.insn	2, 0x9400
      42:	0006                	c.slli	zero,0x1
      44:	0000                	unimp
      46:	0000                	unimp
      48:	0100                	addi	s0,sp,128
      4a:	5a00                	lw	s0,48(a2)
      4c:	0694                	addi	a3,sp,832
      4e:	0000                	unimp
      50:	0000                	unimp
      52:	0000                	unimp
      54:	06c0                	addi	s0,sp,836
      56:	0000                	unimp
      58:	0000                	unimp
      5a:	0000                	unimp
      5c:	0001                	nop
      5e:	005d                	c.nop	23
	...
      6c:	0000                	unimp
      6e:	5a00                	lw	s0,48(a2)
      70:	0006                	c.slli	zero,0x1
      72:	0000                	unimp
      74:	0000                	unimp
      76:	8600                	.insn	2, 0x8600
      78:	0006                	c.slli	zero,0x1
      7a:	0000                	unimp
      7c:	0000                	unimp
      7e:	0200                	addi	s0,sp,256
      80:	3000                	fld	fs0,32(s0)
      82:	889f 0006 0000      	.insn	6, 0x0006889f
      88:	0000                	unimp
      8a:	9c00                	.insn	2, 0x9c00
      8c:	0006                	c.slli	zero,0x1
      8e:	0000                	unimp
      90:	0000                	unimp
      92:	0200                	addi	s0,sp,256
      94:	3000                	fld	fs0,32(s0)
      96:	9c9f 0006 0000      	.insn	6, 0x00069c9f
      9c:	0000                	unimp
      9e:	a400                	fsd	fs0,8(s0)
      a0:	0006                	c.slli	zero,0x1
      a2:	0000                	unimp
      a4:	0000                	unimp
      a6:	0100                	addi	s0,sp,128
      a8:	5a00                	lw	s0,48(a2)
      aa:	06a4                	addi	s1,sp,840
      ac:	0000                	unimp
      ae:	0000                	unimp
      b0:	0000                	unimp
      b2:	06ae                	slli	a3,a3,0xb
      b4:	0000                	unimp
      b6:	0000                	unimp
      b8:	0000                	unimp
      ba:	0001                	nop
      bc:	ae5f 0006 0000      	.insn	6, 0x0006ae5f
      c2:	0000                	unimp
      c4:	b400                	fsd	fs0,40(s0)
      c6:	0006                	c.slli	zero,0x1
      c8:	0000                	unimp
      ca:	0000                	unimp
      cc:	0100                	addi	s0,sp,128
      ce:	5a00                	lw	s0,48(a2)
      d0:	06bc                	addi	a5,sp,840
      d2:	0000                	unimp
      d4:	0000                	unimp
      d6:	0000                	unimp
      d8:	06c0                	addi	s0,sp,836
      da:	0000                	unimp
      dc:	0000                	unimp
      de:	0000                	unimp
      e0:	0002                	c.slli64	zero
      e2:	9f30                	.insn	2, 0x9f30
	...
      f4:	065a                	slli	a2,a2,0x16
      f6:	0000                	unimp
      f8:	0000                	unimp
      fa:	0000                	unimp
      fc:	0686                	slli	a3,a3,0x1
      fe:	0000                	unimp
     100:	0000                	unimp
     102:	0000                	unimp
     104:	0002                	c.slli64	zero
     106:	9f30                	.insn	2, 0x9f30
     108:	0688                	addi	a0,sp,832
     10a:	0000                	unimp
     10c:	0000                	unimp
     10e:	0000                	unimp
     110:	0690                	addi	a2,sp,832
     112:	0000                	unimp
     114:	0000                	unimp
     116:	0000                	unimp
     118:	0002                	c.slli64	zero
     11a:	9f30                	.insn	2, 0x9f30
     11c:	0690                	addi	a2,sp,832
     11e:	0000                	unimp
     120:	0000                	unimp
     122:	0000                	unimp
     124:	069a                	slli	a3,a3,0x6
     126:	0000                	unimp
     128:	0000                	unimp
     12a:	0000                	unimp
     12c:	0005                	c.nop	1
     12e:	007f 2930 9c9f 0006 	.insn	10, 0x00069c9f2930007f
     136:	0000 
     138:	0000                	unimp
     13a:	b400                	fsd	fs0,40(s0)
     13c:	0006                	c.slli	zero,0x1
     13e:	0000                	unimp
     140:	0000                	unimp
     142:	0100                	addi	s0,sp,128
     144:	5c00                	lw	s0,56(s0)
     146:	06bc                	addi	a5,sp,840
     148:	0000                	unimp
     14a:	0000                	unimp
     14c:	0000                	unimp
     14e:	06c0                	addi	s0,sp,836
     150:	0000                	unimp
     152:	0000                	unimp
     154:	0000                	unimp
     156:	0005                	c.nop	1
     158:	007f 2930 009f 0000 	.insn	10, 0x009f2930007f
     160:	0000 
	...
     16a:	0000                	unimp
     16c:	4800                	lw	s0,16(s0)
     16e:	0006                	c.slli	zero,0x1
     170:	0000                	unimp
     172:	0000                	unimp
     174:	4c00                	lw	s0,24(s0)
     176:	0006                	c.slli	zero,0x1
     178:	0000                	unimp
     17a:	0000                	unimp
     17c:	0100                	addi	s0,sp,128
     17e:	5b00                	lw	s0,48(a4)
     180:	064c                	addi	a1,sp,772
     182:	0000                	unimp
     184:	0000                	unimp
     186:	0000                	unimp
     188:	065a                	slli	a2,a2,0x16
     18a:	0000                	unimp
     18c:	0000                	unimp
     18e:	0000                	unimp
     190:	0001                	nop
     192:	0000005b          	.insn	4, 0x005b
	...
     1a2:	4800                	lw	s0,16(s0)
     1a4:	0006                	c.slli	zero,0x1
     1a6:	0000                	unimp
     1a8:	0000                	unimp
     1aa:	4a00                	lw	s0,16(a2)
     1ac:	0006                	c.slli	zero,0x1
     1ae:	0000                	unimp
     1b0:	0000                	unimp
     1b2:	0100                	addi	s0,sp,128
     1b4:	5a00                	lw	s0,48(a2)
     1b6:	064a                	slli	a2,a2,0x12
     1b8:	0000                	unimp
     1ba:	0000                	unimp
     1bc:	0000                	unimp
     1be:	065a                	slli	a2,a2,0x16
     1c0:	0000                	unimp
     1c2:	0000                	unimp
     1c4:	0000                	unimp
     1c6:	0001                	nop
     1c8:	005f 0000 0000      	.insn	6, 0x005f
	...
     1d6:	0000                	unimp
     1d8:	3000                	fld	fs0,32(s0)
     1da:	0006                	c.slli	zero,0x1
     1dc:	0000                	unimp
     1de:	0000                	unimp
     1e0:	3000                	fld	fs0,32(s0)
     1e2:	0006                	c.slli	zero,0x1
     1e4:	0000                	unimp
     1e6:	0000                	unimp
     1e8:	0100                	addi	s0,sp,128
     1ea:	5a00                	lw	s0,48(a2)
     1ec:	0630                	addi	a2,sp,776
     1ee:	0000                	unimp
     1f0:	0000                	unimp
     1f2:	0000                	unimp
     1f4:	0632                	slli	a2,a2,0xc
     1f6:	0000                	unimp
     1f8:	0000                	unimp
     1fa:	0000                	unimp
     1fc:	0004                	.insn	2, 0x0004
     1fe:	9f5a01f3          	.insn	4, 0x9f5a01f3
     202:	0632                	slli	a2,a2,0xc
     204:	0000                	unimp
     206:	0000                	unimp
     208:	0000                	unimp
     20a:	0646                	slli	a2,a2,0x11
     20c:	0000                	unimp
     20e:	0000                	unimp
     210:	0000                	unimp
     212:	0001                	nop
     214:	465a                	lw	a2,148(sp)
     216:	0006                	c.slli	zero,0x1
     218:	0000                	unimp
     21a:	0000                	unimp
     21c:	4800                	lw	s0,16(s0)
     21e:	0006                	c.slli	zero,0x1
     220:	0000                	unimp
     222:	0000                	unimp
     224:	0600                	addi	s0,sp,768
     226:	f300                	sd	s0,32(a4)
     228:	5a01                	li	s4,-32
     22a:	009f0123          	sb	s1,2(t5) # 1a002 <_start-0x7ffe5ffe>
	...
     23a:	0000                	unimp
     23c:	3000                	fld	fs0,32(s0)
     23e:	0006                	c.slli	zero,0x1
     240:	0000                	unimp
     242:	0000                	unimp
     244:	3000                	fld	fs0,32(s0)
     246:	0006                	c.slli	zero,0x1
     248:	0000                	unimp
     24a:	0000                	unimp
     24c:	0100                	addi	s0,sp,128
     24e:	5b00                	lw	s0,48(a4)
     250:	0630                	addi	a2,sp,776
     252:	0000                	unimp
     254:	0000                	unimp
     256:	0000                	unimp
     258:	0638                	addi	a4,sp,776
     25a:	0000                	unimp
     25c:	0000                	unimp
     25e:	0000                	unimp
     260:	0004                	.insn	2, 0x0004
     262:	9f5b01f3          	.insn	4, 0x9f5b01f3
     266:	0638                	addi	a4,sp,776
     268:	0000                	unimp
     26a:	0000                	unimp
     26c:	0000                	unimp
     26e:	0648                	addi	a0,sp,772
     270:	0000                	unimp
     272:	0000                	unimp
     274:	0000                	unimp
     276:	0001                	nop
     278:	0000005b          	.insn	4, 0x005b
	...
     288:	2400                	fld	fs0,8(s0)
     28a:	0002                	c.slli64	zero
     28c:	0000                	unimp
     28e:	0000                	unimp
     290:	3c00                	fld	fs0,56(s0)
     292:	0002                	c.slli64	zero
     294:	0000                	unimp
     296:	0000                	unimp
     298:	0100                	addi	s0,sp,128
     29a:	5a00                	lw	s0,48(a2)
     29c:	023c                	addi	a5,sp,264
     29e:	0000                	unimp
     2a0:	0000                	unimp
     2a2:	0000                	unimp
     2a4:	023e                	slli	tp,tp,0xf
     2a6:	0000                	unimp
     2a8:	0000                	unimp
     2aa:	0000                	unimp
     2ac:	0004                	.insn	2, 0x0004
     2ae:	9f5a01f3          	.insn	4, 0x9f5a01f3
     2b2:	023e                	slli	tp,tp,0xf
     2b4:	0000                	unimp
     2b6:	0000                	unimp
     2b8:	0000                	unimp
     2ba:	0242                	slli	tp,tp,0x10
     2bc:	0000                	unimp
     2be:	0000                	unimp
     2c0:	0000                	unimp
     2c2:	0001                	nop
     2c4:	005a                	c.slli	zero,0x16
	...
     2d2:	0000                	unimp
     2d4:	2400                	fld	fs0,8(s0)
     2d6:	0002                	c.slli64	zero
     2d8:	0000                	unimp
     2da:	0000                	unimp
     2dc:	2400                	fld	fs0,8(s0)
     2de:	0002                	c.slli64	zero
     2e0:	0000                	unimp
     2e2:	0000                	unimp
     2e4:	0100                	addi	s0,sp,128
     2e6:	5b00                	lw	s0,48(a4)
     2e8:	0224                	addi	s1,sp,264
     2ea:	0000                	unimp
     2ec:	0000                	unimp
     2ee:	0000                	unimp
     2f0:	0228                	addi	a0,sp,264
     2f2:	0000                	unimp
     2f4:	0000                	unimp
     2f6:	0000                	unimp
     2f8:	7f7b0003          	lb	zero,2039(s6)
     2fc:	289f 0002 0000      	.insn	6, 0x0002289f
     302:	0000                	unimp
     304:	2a00                	fld	fs0,16(a2)
     306:	0002                	c.slli64	zero
     308:	0000                	unimp
     30a:	0000                	unimp
     30c:	0600                	addi	s0,sp,768
     30e:	f300                	sd	s0,32(a4)
     310:	5b01                	li	s6,-32
     312:	1c31                	addi	s8,s8,-20 # 18fec <_start-0x7ffe7014>
     314:	2a9f 0002 0000      	.insn	6, 0x00022a9f
     31a:	0000                	unimp
     31c:	3800                	fld	fs0,48(s0)
     31e:	0002                	c.slli64	zero
     320:	0000                	unimp
     322:	0000                	unimp
     324:	0b00                	addi	s0,sp,400
     326:	7f00                	ld	s0,56(a4)
     328:	2000                	fld	fs0,0(s0)
     32a:	225b01f3          	.insn	4, 0x225b01f3
     32e:	007a                	c.slli	zero,0x1e
     330:	9f22                	add	t5,t5,s0
     332:	023e                	slli	tp,tp,0xf
     334:	0000                	unimp
     336:	0000                	unimp
     338:	0000                	unimp
     33a:	0242                	slli	tp,tp,0x10
     33c:	0000                	unimp
     33e:	0000                	unimp
     340:	0000                	unimp
     342:	7f7b0003          	lb	zero,2039(s6)
     346:	009f 0000 0000      	.insn	6, 0x009f
	...
     354:	0000                	unimp
     356:	2400                	fld	fs0,8(s0)
     358:	0002                	c.slli64	zero
     35a:	0000                	unimp
     35c:	0000                	unimp
     35e:	2a00                	fld	fs0,16(a2)
     360:	0002                	c.slli64	zero
     362:	0000                	unimp
     364:	0000                	unimp
     366:	0100                	addi	s0,sp,128
     368:	5a00                	lw	s0,48(a2)
     36a:	022a                	slli	tp,tp,0xa
     36c:	0000                	unimp
     36e:	0000                	unimp
     370:	0000                	unimp
     372:	0238                	addi	a4,sp,264
     374:	0000                	unimp
     376:	0000                	unimp
     378:	0000                	unimp
     37a:	0001                	nop
     37c:	3e5f 0002 0000      	.insn	6, 0x00023e5f
     382:	0000                	unimp
     384:	4200                	lw	s0,0(a2)
     386:	0002                	c.slli64	zero
     388:	0000                	unimp
     38a:	0000                	unimp
     38c:	0100                	addi	s0,sp,128
     38e:	5a00                	lw	s0,48(a2)
	...
     3a0:	020a                	slli	tp,tp,0x2
     3a2:	0000                	unimp
     3a4:	0000                	unimp
     3a6:	0000                	unimp
     3a8:	021e                	slli	tp,tp,0x7
     3aa:	0000                	unimp
     3ac:	0000                	unimp
     3ae:	0000                	unimp
     3b0:	0001                	nop
     3b2:	1e5a                	slli	t3,t3,0x36
     3b4:	0002                	c.slli64	zero
     3b6:	0000                	unimp
     3b8:	0000                	unimp
     3ba:	2000                	fld	fs0,0(s0)
     3bc:	0002                	c.slli64	zero
     3be:	0000                	unimp
     3c0:	0000                	unimp
     3c2:	0400                	addi	s0,sp,512
     3c4:	f300                	sd	s0,32(a4)
     3c6:	5a01                	li	s4,-32
     3c8:	209f 0002 0000      	.insn	6, 0x0002209f
     3ce:	0000                	unimp
     3d0:	2400                	fld	fs0,8(s0)
     3d2:	0002                	c.slli64	zero
     3d4:	0000                	unimp
     3d6:	0000                	unimp
     3d8:	0100                	addi	s0,sp,128
     3da:	5a00                	lw	s0,48(a2)
	...
     3ec:	020a                	slli	tp,tp,0x2
     3ee:	0000                	unimp
     3f0:	0000                	unimp
     3f2:	0000                	unimp
     3f4:	0212                	slli	tp,tp,0x4
     3f6:	0000                	unimp
     3f8:	0000                	unimp
     3fa:	0000                	unimp
     3fc:	0001                	nop
     3fe:	125a                	slli	tp,tp,0x36
     400:	0002                	c.slli64	zero
     402:	0000                	unimp
     404:	0000                	unimp
     406:	2000                	fld	fs0,0(s0)
     408:	0002                	c.slli64	zero
     40a:	0000                	unimp
     40c:	0000                	unimp
     40e:	0100                	addi	s0,sp,128
     410:	5f00                	lw	s0,56(a4)
     412:	0220                	addi	s0,sp,264
     414:	0000                	unimp
     416:	0000                	unimp
     418:	0000                	unimp
     41a:	0224                	addi	s1,sp,264
     41c:	0000                	unimp
     41e:	0000                	unimp
     420:	0000                	unimp
     422:	0001                	nop
     424:	005a                	c.slli	zero,0x16
	...
     432:	0000                	unimp
     434:	c200                	sw	s0,0(a2)
     436:	0001                	nop
     438:	0000                	unimp
     43a:	0000                	unimp
     43c:	dc00                	sw	s0,56(s0)
     43e:	0001                	nop
     440:	0000                	unimp
     442:	0000                	unimp
     444:	0100                	addi	s0,sp,128
     446:	5b00                	lw	s0,48(a4)
     448:	01dc                	addi	a5,sp,196
     44a:	0000                	unimp
     44c:	0000                	unimp
     44e:	0000                	unimp
     450:	01de                	slli	gp,gp,0x17
     452:	0000                	unimp
     454:	0000                	unimp
     456:	0000                	unimp
     458:	0004                	.insn	2, 0x0004
     45a:	9f5b01f3          	.insn	4, 0x9f5b01f3
     45e:	01de                	slli	gp,gp,0x17
     460:	0000                	unimp
     462:	0000                	unimp
     464:	0000                	unimp
     466:	01e4                	addi	s1,sp,204
     468:	0000                	unimp
     46a:	0000                	unimp
     46c:	0000                	unimp
     46e:	0001                	nop
     470:	0001e45b          	.insn	4, 0x0001e45b
     474:	0000                	unimp
     476:	0000                	unimp
     478:	0a00                	addi	s0,sp,272
     47a:	0002                	c.slli64	zero
     47c:	0000                	unimp
     47e:	0000                	unimp
     480:	0400                	addi	s0,sp,512
     482:	f300                	sd	s0,32(a4)
     484:	5b01                	li	s6,-32
     486:	009f 0000 0000      	.insn	6, 0x009f
	...
     494:	0000                	unimp
     496:	c200                	sw	s0,0(a2)
     498:	0001                	nop
     49a:	0000                	unimp
     49c:	0000                	unimp
     49e:	cc00                	sw	s0,24(s0)
     4a0:	0001                	nop
     4a2:	0000                	unimp
     4a4:	0000                	unimp
     4a6:	0100                	addi	s0,sp,128
     4a8:	5c00                	lw	s0,56(s0)
     4aa:	01cc                	addi	a1,sp,196
     4ac:	0000                	unimp
     4ae:	0000                	unimp
     4b0:	0000                	unimp
     4b2:	01e0                	addi	s0,sp,204
     4b4:	0000                	unimp
     4b6:	0000                	unimp
     4b8:	0000                	unimp
     4ba:	0004                	.insn	2, 0x0004
     4bc:	9f5c01f3          	.insn	4, 0x9f5c01f3
     4c0:	01e0                	addi	s0,sp,204
     4c2:	0000                	unimp
     4c4:	0000                	unimp
     4c6:	0000                	unimp
     4c8:	01f8                	addi	a4,sp,204
     4ca:	0000                	unimp
     4cc:	0000                	unimp
     4ce:	0000                	unimp
     4d0:	0001                	nop
     4d2:	f85c                	sd	a5,176(s0)
     4d4:	0001                	nop
     4d6:	0000                	unimp
     4d8:	0000                	unimp
     4da:	0a00                	addi	s0,sp,272
     4dc:	0002                	c.slli64	zero
     4de:	0000                	unimp
     4e0:	0000                	unimp
     4e2:	0400                	addi	s0,sp,512
     4e4:	f300                	sd	s0,32(a4)
     4e6:	5c01                	li	s8,-32
     4e8:	009f 0000 0000      	.insn	6, 0x009f
	...
     4f6:	0000                	unimp
     4f8:	e000                	sd	s0,0(s0)
     4fa:	0001                	nop
     4fc:	0000                	unimp
     4fe:	0000                	unimp
     500:	e400                	sd	s0,8(s0)
     502:	0001                	nop
     504:	0000                	unimp
     506:	0000                	unimp
     508:	1200                	addi	s0,sp,288
     50a:	7b00                	ld	s0,48(a4)
     50c:	0800                	addi	s0,sp,16
     50e:	ff0c1aff 1affffff 	.insn	12, 0x0101010c1affffffff0c1aff
     516:	0101010c 
     51a:	1e01                	addi	t3,t3,-32 # 18fe0 <_start-0x7ffe7020>
     51c:	e49f 0001 0000      	.insn	6, 0x0001e49f
     522:	0000                	unimp
     524:	f600                	sd	s0,40(a2)
     526:	0001                	nop
     528:	0000                	unimp
     52a:	0000                	unimp
     52c:	1300                	addi	s0,sp,416
     52e:	f300                	sd	s0,32(a4)
     530:	5b01                	li	s6,-32
     532:	ff08                	sd	a0,56(a4)
     534:	0c1a                	slli	s8,s8,0x6
     536:	ffff                	.insn	2, 0xffff
     538:	ffff                	.insn	2, 0xffff
     53a:	0c1a                	slli	s8,s8,0x6
     53c:	0101                	addi	sp,sp,0
     53e:	0101                	addi	sp,sp,0
     540:	9f1e                	add	t5,t5,t2
     542:	01f6                	slli	gp,gp,0x1d
     544:	0000                	unimp
     546:	0000                	unimp
     548:	0000                	unimp
     54a:	020a                	slli	tp,tp,0x2
     54c:	0000                	unimp
     54e:	0000                	unimp
     550:	0000                	unimp
     552:	0001                	nop
     554:	0000005b          	.insn	4, 0x005b
	...
     564:	f600                	sd	s0,40(a2)
     566:	0001                	nop
     568:	0000                	unimp
     56a:	0000                	unimp
     56c:	fe00                	sd	s0,56(a2)
     56e:	0001                	nop
     570:	0000                	unimp
     572:	0000                	unimp
     574:	0100                	addi	s0,sp,128
     576:	5a00                	lw	s0,48(a2)
     578:	01fe                	slli	gp,gp,0x1f
     57a:	0000                	unimp
     57c:	0000                	unimp
     57e:	0000                	unimp
     580:	020a                	slli	tp,tp,0x2
     582:	0000                	unimp
     584:	0000                	unimp
     586:	0000                	unimp
     588:	0001                	nop
     58a:	005f 0000 0000      	.insn	6, 0x005f
	...
     598:	0000                	unimp
     59a:	ca00                	sw	s0,16(a2)
     59c:	0001                	nop
     59e:	0000                	unimp
     5a0:	0000                	unimp
     5a2:	d200                	sw	s0,32(a2)
     5a4:	0001                	nop
     5a6:	0000                	unimp
     5a8:	0000                	unimp
     5aa:	0100                	addi	s0,sp,128
     5ac:	5a00                	lw	s0,48(a2)
     5ae:	01d2                	slli	gp,gp,0x14
     5b0:	0000                	unimp
     5b2:	0000                	unimp
     5b4:	0000                	unimp
     5b6:	01dc                	addi	a5,sp,196
     5b8:	0000                	unimp
     5ba:	0000                	unimp
     5bc:	0000                	unimp
     5be:	0001                	nop
     5c0:	de5f 0001 0000      	.insn	6, 0x0001de5f
     5c6:	0000                	unimp
     5c8:	e000                	sd	s0,0(s0)
     5ca:	0001                	nop
     5cc:	0000                	unimp
     5ce:	0000                	unimp
     5d0:	0100                	addi	s0,sp,128
     5d2:	5a00                	lw	s0,48(a2)
	...
     5e4:	017e                	slli	sp,sp,0x1f
     5e6:	0000                	unimp
     5e8:	0000                	unimp
     5ea:	0000                	unimp
     5ec:	0194                	addi	a3,sp,192
     5ee:	0000                	unimp
     5f0:	0000                	unimp
     5f2:	0000                	unimp
     5f4:	0001                	nop
     5f6:	0001945b          	.insn	4, 0x0001945b
     5fa:	0000                	unimp
     5fc:	0000                	unimp
     5fe:	a600                	fsd	fs0,8(a2)
     600:	0001                	nop
     602:	0000                	unimp
     604:	0000                	unimp
     606:	0400                	addi	s0,sp,512
     608:	f300                	sd	s0,32(a4)
     60a:	5b01                	li	s6,-32
     60c:	a69f 0001 0000      	.insn	6, 0x0001a69f
     612:	0000                	unimp
     614:	b000                	fsd	fs0,32(s0)
     616:	0001                	nop
     618:	0000                	unimp
     61a:	0000                	unimp
     61c:	0100                	addi	s0,sp,128
     61e:	5b00                	lw	s0,48(a4)
     620:	01b0                	addi	a2,sp,200
     622:	0000                	unimp
     624:	0000                	unimp
     626:	0000                	unimp
     628:	01c2                	slli	gp,gp,0x10
     62a:	0000                	unimp
     62c:	0000                	unimp
     62e:	0000                	unimp
     630:	0004                	.insn	2, 0x0004
     632:	9f5b01f3          	.insn	4, 0x9f5b01f3
	...
     646:	017e                	slli	sp,sp,0x1f
     648:	0000                	unimp
     64a:	0000                	unimp
     64c:	0000                	unimp
     64e:	018e                	slli	gp,gp,0x3
     650:	0000                	unimp
     652:	0000                	unimp
     654:	0000                	unimp
     656:	0001                	nop
     658:	8e5c                	.insn	2, 0x8e5c
     65a:	0001                	nop
     65c:	0000                	unimp
     65e:	0000                	unimp
     660:	a800                	fsd	fs0,16(s0)
     662:	0001                	nop
     664:	0000                	unimp
     666:	0000                	unimp
     668:	0400                	addi	s0,sp,512
     66a:	f300                	sd	s0,32(a4)
     66c:	5c01                	li	s8,-32
     66e:	a89f 0001 0000      	.insn	6, 0x0001a89f
     674:	0000                	unimp
     676:	aa00                	fsd	fs0,16(a2)
     678:	0001                	nop
     67a:	0000                	unimp
     67c:	0000                	unimp
     67e:	0100                	addi	s0,sp,128
     680:	5c00                	lw	s0,56(s0)
     682:	01aa                	slli	gp,gp,0xa
     684:	0000                	unimp
     686:	0000                	unimp
     688:	0000                	unimp
     68a:	01c2                	slli	gp,gp,0x10
     68c:	0000                	unimp
     68e:	0000                	unimp
     690:	0000                	unimp
     692:	0004                	.insn	2, 0x0004
     694:	9f5c01f3          	.insn	4, 0x9f5c01f3
	...
     6a8:	01a8                	addi	a0,sp,200
     6aa:	0000                	unimp
     6ac:	0000                	unimp
     6ae:	0000                	unimp
     6b0:	01b0                	addi	a2,sp,200
     6b2:	0000                	unimp
     6b4:	0000                	unimp
     6b6:	0000                	unimp
     6b8:	0001                	nop
     6ba:	b05a                	fsd	fs6,32(sp)
     6bc:	0001                	nop
     6be:	0000                	unimp
     6c0:	0000                	unimp
     6c2:	c200                	sw	s0,0(a2)
     6c4:	0001                	nop
     6c6:	0000                	unimp
     6c8:	0000                	unimp
     6ca:	0100                	addi	s0,sp,128
     6cc:	5f00                	lw	s0,56(a4)
	...
     6de:	0188                	addi	a0,sp,192
     6e0:	0000                	unimp
     6e2:	0000                	unimp
     6e4:	0000                	unimp
     6e6:	01a4                	addi	s1,sp,200
     6e8:	0000                	unimp
     6ea:	0000                	unimp
     6ec:	0000                	unimp
     6ee:	0001                	nop
     6f0:	0001a65b          	.insn	4, 0x0001a65b
     6f4:	0000                	unimp
     6f6:	0000                	unimp
     6f8:	a800                	fsd	fs0,16(s0)
     6fa:	0001                	nop
     6fc:	0000                	unimp
     6fe:	0000                	unimp
     700:	0100                	addi	s0,sp,128
     702:	5b00                	lw	s0,48(a4)
	...
     714:	0188                	addi	a0,sp,192
     716:	0000                	unimp
     718:	0000                	unimp
     71a:	0000                	unimp
     71c:	0194                	addi	a3,sp,192
     71e:	0000                	unimp
     720:	0000                	unimp
     722:	0000                	unimp
     724:	0001                	nop
     726:	945a                	add	s0,s0,s6
     728:	0001                	nop
     72a:	0000                	unimp
     72c:	0000                	unimp
     72e:	a400                	fsd	fs0,8(s0)
     730:	0001                	nop
     732:	0000                	unimp
     734:	0000                	unimp
     736:	0100                	addi	s0,sp,128
     738:	5f00                	lw	s0,56(a4)
     73a:	01a6                	slli	gp,gp,0x9
     73c:	0000                	unimp
     73e:	0000                	unimp
     740:	0000                	unimp
     742:	01a8                	addi	a0,sp,200
     744:	0000                	unimp
     746:	0000                	unimp
     748:	0000                	unimp
     74a:	0001                	nop
     74c:	005a                	c.slli	zero,0x16
	...
     75a:	0000                	unimp
     75c:	3800                	fld	fs0,48(s0)
     75e:	0005                	c.nop	1
     760:	0000                	unimp
     762:	0000                	unimp
     764:	3a00                	fld	fs0,48(a2)
     766:	0005                	c.nop	1
     768:	0000                	unimp
     76a:	0000                	unimp
     76c:	0200                	addi	s0,sp,256
     76e:	7200                	ld	s0,32(a2)
     770:	3a00                	fld	fs0,48(a2)
     772:	0005                	c.nop	1
     774:	0000                	unimp
     776:	0000                	unimp
     778:	7200                	ld	s0,32(a2)
     77a:	0005                	c.nop	1
     77c:	0000                	unimp
     77e:	0000                	unimp
     780:	0300                	addi	s0,sp,384
     782:	7200                	ld	s0,32(a2)
     784:	00e0                	addi	s0,sp,76
     786:	0572                	slli	a0,a0,0x1c
     788:	0000                	unimp
     78a:	0000                	unimp
     78c:	0000                	unimp
     78e:	0574                	addi	a3,sp,652
     790:	0000                	unimp
     792:	0000                	unimp
     794:	0000                	unimp
     796:	0002                	c.slli64	zero
     798:	0072                	c.slli	zero,0x1c
	...
     7aa:	0538                	addi	a4,sp,648
     7ac:	0000                	unimp
     7ae:	0000                	unimp
     7b0:	0000                	unimp
     7b2:	055e                	slli	a0,a0,0x17
     7b4:	0000                	unimp
     7b6:	0000                	unimp
     7b8:	0000                	unimp
     7ba:	0001                	nop
     7bc:	5e5a                	lw	t3,180(sp)
     7be:	0005                	c.nop	1
     7c0:	0000                	unimp
     7c2:	0000                	unimp
     7c4:	6100                	ld	s0,0(a0)
     7c6:	0005                	c.nop	1
     7c8:	0000                	unimp
     7ca:	0000                	unimp
     7cc:	0100                	addi	s0,sp,128
     7ce:	5800                	lw	s0,48(s0)
	...
     7e0:	0538                	addi	a4,sp,648
     7e2:	0000                	unimp
     7e4:	0000                	unimp
     7e6:	0000                	unimp
     7e8:	0556                	slli	a0,a0,0x15
     7ea:	0000                	unimp
     7ec:	0000                	unimp
     7ee:	0000                	unimp
     7f0:	0001                	nop
     7f2:	0005565b          	.insn	4, 0x0005565b
     7f6:	0000                	unimp
     7f8:	0000                	unimp
     7fa:	6100                	ld	s0,0(a0)
     7fc:	0005                	c.nop	1
     7fe:	0000                	unimp
     800:	0000                	unimp
     802:	0100                	addi	s0,sp,128
     804:	5c00                	lw	s0,56(s0)
     806:	0561                	addi	a0,a0,24 # 1b018 <_start-0x7ffe4fe8>
     808:	0000                	unimp
     80a:	0000                	unimp
     80c:	0000                	unimp
     80e:	0574                	addi	a3,sp,652
     810:	0000                	unimp
     812:	0000                	unimp
     814:	0000                	unimp
     816:	0004                	.insn	2, 0x0004
     818:	9f5b01f3          	.insn	4, 0x9f5b01f3
	...
     82c:	054e                	slli	a0,a0,0x13
     82e:	0000                	unimp
     830:	0000                	unimp
     832:	0000                	unimp
     834:	055e                	slli	a0,a0,0x17
     836:	0000                	unimp
     838:	0000                	unimp
     83a:	0000                	unimp
     83c:	0001                	nop
     83e:	5e5a                	lw	t3,180(sp)
     840:	0005                	c.nop	1
     842:	0000                	unimp
     844:	0000                	unimp
     846:	7000                	ld	s0,32(s0)
     848:	0005                	c.nop	1
     84a:	0000                	unimp
     84c:	0000                	unimp
     84e:	0100                	addi	s0,sp,128
     850:	5800                	lw	s0,48(s0)
     852:	0570                	addi	a2,sp,652
     854:	0000                	unimp
     856:	0000                	unimp
     858:	0000                	unimp
     85a:	0574                	addi	a3,sp,652
     85c:	0000                	unimp
     85e:	0000                	unimp
     860:	0000                	unimp
     862:	0004                	.insn	2, 0x0004
     864:	9f5a01f3          	.insn	4, 0x9f5a01f3
	...
     878:	050a                	slli	a0,a0,0x2
     87a:	0000                	unimp
     87c:	0000                	unimp
     87e:	0000                	unimp
     880:	050c                	addi	a1,sp,640
     882:	0000                	unimp
     884:	0000                	unimp
     886:	0000                	unimp
     888:	0002                	c.slli64	zero
     88a:	0072                	c.slli	zero,0x1c
     88c:	050c                	addi	a1,sp,640
     88e:	0000                	unimp
     890:	0000                	unimp
     892:	0000                	unimp
     894:	0536                	slli	a0,a0,0xd
     896:	0000                	unimp
     898:	0000                	unimp
     89a:	0000                	unimp
     89c:	e0720003          	lb	zero,-505(tp) # ffffffffffff7e07 <__global_pointer$+0xffffffff7fff65bf>
     8a0:	3600                	fld	fs0,40(a2)
     8a2:	0005                	c.nop	1
     8a4:	0000                	unimp
     8a6:	0000                	unimp
     8a8:	3800                	fld	fs0,48(s0)
     8aa:	0005                	c.nop	1
     8ac:	0000                	unimp
     8ae:	0000                	unimp
     8b0:	0200                	addi	s0,sp,256
     8b2:	7200                	ld	s0,32(a2)
	...
     8c4:	0a00                	addi	s0,sp,272
     8c6:	0005                	c.nop	1
     8c8:	0000                	unimp
     8ca:	0000                	unimp
     8cc:	2c00                	fld	fs0,24(s0)
     8ce:	0005                	c.nop	1
     8d0:	0000                	unimp
     8d2:	0000                	unimp
     8d4:	0100                	addi	s0,sp,128
     8d6:	5a00                	lw	s0,48(a2)
     8d8:	052c                	addi	a1,sp,648
     8da:	0000                	unimp
     8dc:	0000                	unimp
     8de:	0000                	unimp
     8e0:	0000052f          	.insn	4, 0x052f
     8e4:	0000                	unimp
     8e6:	0000                	unimp
     8e8:	0001                	nop
     8ea:	2f5c                	fld	fa5,152(a4)
     8ec:	0005                	c.nop	1
     8ee:	0000                	unimp
     8f0:	0000                	unimp
     8f2:	3800                	fld	fs0,48(s0)
     8f4:	0005                	c.nop	1
     8f6:	0000                	unimp
     8f8:	0000                	unimp
     8fa:	0400                	addi	s0,sp,512
     8fc:	f300                	sd	s0,32(a4)
     8fe:	5a01                	li	s4,-32
     900:	009f 0000 0000      	.insn	6, 0x009f
	...
     90e:	0000                	unimp
     910:	4200                	lw	s0,0(a2)
     912:	0002                	c.slli64	zero
     914:	0000                	unimp
     916:	0000                	unimp
     918:	4400                	lw	s0,8(s0)
     91a:	0002                	c.slli64	zero
     91c:	0000                	unimp
     91e:	0000                	unimp
     920:	0200                	addi	s0,sp,256
     922:	7200                	ld	s0,32(a2)
     924:	4400                	lw	s0,8(s0)
     926:	0002                	c.slli64	zero
     928:	0000                	unimp
     92a:	0000                	unimp
     92c:	0800                	addi	s0,sp,16
     92e:	0005                	c.nop	1
     930:	0000                	unimp
     932:	0000                	unimp
     934:	0300                	addi	s0,sp,384
     936:	7200                	ld	s0,32(a2)
     938:	02f0                	addi	a2,sp,332
     93a:	0508                	addi	a0,sp,640
     93c:	0000                	unimp
     93e:	0000                	unimp
     940:	0000                	unimp
     942:	050a                	slli	a0,a0,0x2
     944:	0000                	unimp
     946:	0000                	unimp
     948:	0000                	unimp
     94a:	0002                	c.slli64	zero
     94c:	0072                	c.slli	zero,0x1c
	...
     95e:	0242                	slli	tp,tp,0x10
     960:	0000                	unimp
     962:	0000                	unimp
     964:	0000                	unimp
     966:	0272                	slli	tp,tp,0x1c
     968:	0000                	unimp
     96a:	0000                	unimp
     96c:	0000                	unimp
     96e:	0001                	nop
     970:	725a                	ld	tp,432(sp)
     972:	0002                	c.slli64	zero
     974:	0000                	unimp
     976:	0000                	unimp
     978:	f600                	sd	s0,40(a2)
     97a:	0004                	.insn	2, 0x0004
     97c:	0000                	unimp
     97e:	0000                	unimp
     980:	0100                	addi	s0,sp,128
     982:	6200                	ld	s0,0(a2)
     984:	04f6                	slli	s1,s1,0x1d
     986:	0000                	unimp
     988:	0000                	unimp
     98a:	0000                	unimp
     98c:	050a                	slli	a0,a0,0x2
     98e:	0000                	unimp
     990:	0000                	unimp
     992:	0000                	unimp
     994:	0004                	.insn	2, 0x0004
     996:	9f5a01f3          	.insn	4, 0x9f5a01f3
	...
     9aa:	0242                	slli	tp,tp,0x10
     9ac:	0000                	unimp
     9ae:	0000                	unimp
     9b0:	0000                	unimp
     9b2:	0272                	slli	tp,tp,0x1c
     9b4:	0000                	unimp
     9b6:	0000                	unimp
     9b8:	0000                	unimp
     9ba:	0001                	nop
     9bc:	0002725b          	.insn	4, 0x0002725b
     9c0:	0000                	unimp
     9c2:	0000                	unimp
     9c4:	f400                	sd	s0,40(s0)
     9c6:	0004                	.insn	2, 0x0004
     9c8:	0000                	unimp
     9ca:	0000                	unimp
     9cc:	0100                	addi	s0,sp,128
     9ce:	5900                	lw	s0,48(a0)
     9d0:	04f4                	addi	a3,sp,588
     9d2:	0000                	unimp
     9d4:	0000                	unimp
     9d6:	0000                	unimp
     9d8:	050a                	slli	a0,a0,0x2
     9da:	0000                	unimp
     9dc:	0000                	unimp
     9de:	0000                	unimp
     9e0:	0004                	.insn	2, 0x0004
     9e2:	9f5b01f3          	.insn	4, 0x9f5b01f3
	...
     9f6:	0242                	slli	tp,tp,0x10
     9f8:	0000                	unimp
     9fa:	0000                	unimp
     9fc:	0000                	unimp
     9fe:	0272                	slli	tp,tp,0x1c
     a00:	0000                	unimp
     a02:	0000                	unimp
     a04:	0000                	unimp
     a06:	0001                	nop
     a08:	725c                	ld	a5,160(a2)
     a0a:	0002                	c.slli64	zero
     a0c:	0000                	unimp
     a0e:	0000                	unimp
     a10:	9000                	.insn	2, 0x9000
     a12:	0002                	c.slli64	zero
     a14:	0000                	unimp
     a16:	0000                	unimp
     a18:	0100                	addi	s0,sp,128
     a1a:	5800                	lw	s0,48(s0)
     a1c:	0290                	addi	a2,sp,320
     a1e:	0000                	unimp
     a20:	0000                	unimp
     a22:	0000                	unimp
     a24:	02a0                	addi	s0,sp,328
     a26:	0000                	unimp
     a28:	0000                	unimp
     a2a:	0000                	unimp
     a2c:	0001                	nop
     a2e:	a065                	j	ad6 <_start-0x7ffff52a>
     a30:	0002                	c.slli64	zero
     a32:	0000                	unimp
     a34:	0000                	unimp
     a36:	a400                	fsd	fs0,8(s0)
     a38:	0002                	c.slli64	zero
     a3a:	0000                	unimp
     a3c:	0000                	unimp
     a3e:	0100                	addi	s0,sp,128
     a40:	5e00                	lw	s0,56(a2)
     a42:	02a4                	addi	s1,sp,328
     a44:	0000                	unimp
     a46:	0000                	unimp
     a48:	0000                	unimp
     a4a:	04cc                	addi	a1,sp,580
     a4c:	0000                	unimp
     a4e:	0000                	unimp
     a50:	0000                	unimp
     a52:	0001                	nop
     a54:	cc58                	sw	a4,28(s0)
     a56:	0004                	.insn	2, 0x0004
     a58:	0000                	unimp
     a5a:	0000                	unimp
     a5c:	d000                	sw	s0,32(s0)
     a5e:	0004                	.insn	2, 0x0004
     a60:	0000                	unimp
     a62:	0000                	unimp
     a64:	0100                	addi	s0,sp,128
     a66:	6500                	ld	s0,8(a0)
     a68:	04d0                	addi	a2,sp,580
     a6a:	0000                	unimp
     a6c:	0000                	unimp
     a6e:	0000                	unimp
     a70:	04f2                	slli	s1,s1,0x1c
     a72:	0000                	unimp
     a74:	0000                	unimp
     a76:	0000                	unimp
     a78:	0001                	nop
     a7a:	0058                	addi	a4,sp,4
	...
     a88:	0000                	unimp
     a8a:	4200                	lw	s0,0(a2)
     a8c:	0002                	c.slli64	zero
     a8e:	0000                	unimp
     a90:	0000                	unimp
     a92:	7200                	ld	s0,32(a2)
     a94:	0002                	c.slli64	zero
     a96:	0000                	unimp
     a98:	0000                	unimp
     a9a:	0100                	addi	s0,sp,128
     a9c:	5d00                	lw	s0,56(a0)
     a9e:	0272                	slli	tp,tp,0x1c
     aa0:	0000                	unimp
     aa2:	0000                	unimp
     aa4:	0000                	unimp
     aa6:	02c0                	addi	s0,sp,324
     aa8:	0000                	unimp
     aaa:	0000                	unimp
     aac:	0000                	unimp
     aae:	0001                	nop
     ab0:	c068                	sw	a0,68(s0)
     ab2:	0002                	c.slli64	zero
     ab4:	0000                	unimp
     ab6:	0000                	unimp
     ab8:	c400                	sw	s0,8(s0)
     aba:	0002                	c.slli64	zero
     abc:	0000                	unimp
     abe:	0000                	unimp
     ac0:	0100                	addi	s0,sp,128
     ac2:	6500                	ld	s0,8(a0)
     ac4:	02c4                	addi	s1,sp,324
     ac6:	0000                	unimp
     ac8:	0000                	unimp
     aca:	0000                	unimp
     acc:	030e                	slli	t1,t1,0x3
     ace:	0000                	unimp
     ad0:	0000                	unimp
     ad2:	0000                	unimp
     ad4:	0001                	nop
     ad6:	0e68                	addi	a0,sp,796
     ad8:	00000003          	lb	zero,0(zero) # 0 <_start-0x80000000>
     adc:	0000                	unimp
     ade:	1400                	addi	s0,sp,544
     ae0:	00000003          	lb	zero,0(zero) # 0 <_start-0x80000000>
     ae4:	0000                	unimp
     ae6:	0300                	addi	s0,sp,384
     ae8:	8800                	.insn	2, 0x8800
     aea:	9f08                	.insn	2, 0x9f08
     aec:	0314                	addi	a3,sp,384
     aee:	0000                	unimp
     af0:	0000                	unimp
     af2:	0000                	unimp
     af4:	0344                	addi	s1,sp,388
     af6:	0000                	unimp
     af8:	0000                	unimp
     afa:	0000                	unimp
     afc:	0001                	nop
     afe:	4468                	lw	a0,76(s0)
     b00:	00000003          	lb	zero,0(zero) # 0 <_start-0x80000000>
     b04:	0000                	unimp
     b06:	5000                	lw	s0,32(s0)
     b08:	00000003          	lb	zero,0(zero) # 0 <_start-0x80000000>
     b0c:	0000                	unimp
     b0e:	0100                	addi	s0,sp,128
     b10:	6300                	ld	s0,0(a4)
     b12:	0350                	addi	a2,sp,388
     b14:	0000                	unimp
     b16:	0000                	unimp
     b18:	0000                	unimp
     b1a:	0354                	addi	a3,sp,388
     b1c:	0000                	unimp
     b1e:	0000                	unimp
     b20:	0000                	unimp
     b22:	0001                	nop
     b24:	5468                	lw	a0,108(s0)
     b26:	00000003          	lb	zero,0(zero) # 0 <_start-0x80000000>
     b2a:	0000                	unimp
     b2c:	c800                	sw	s0,16(s0)
     b2e:	00000003          	lb	zero,0(zero) # 0 <_start-0x80000000>
     b32:	0000                	unimp
     b34:	0100                	addi	s0,sp,128
     b36:	6500                	ld	s0,8(a0)
     b38:	03c8                	addi	a0,sp,452
     b3a:	0000                	unimp
     b3c:	0000                	unimp
     b3e:	0000                	unimp
     b40:	03d2                	slli	t2,t2,0x14
     b42:	0000                	unimp
     b44:	0000                	unimp
     b46:	0000                	unimp
     b48:	0001                	nop
     b4a:	d268                	sw	a0,100(a2)
     b4c:	00000003          	lb	zero,0(zero) # 0 <_start-0x80000000>
     b50:	0000                	unimp
     b52:	d800                	sw	s0,48(s0)
     b54:	00000003          	lb	zero,0(zero) # 0 <_start-0x80000000>
     b58:	0000                	unimp
     b5a:	0300                	addi	s0,sp,384
     b5c:	8800                	.insn	2, 0x8800
     b5e:	9f08                	.insn	2, 0x9f08
     b60:	03d8                	addi	a4,sp,452
     b62:	0000                	unimp
     b64:	0000                	unimp
     b66:	0000                	unimp
     b68:	03da                	slli	t2,t2,0x16
     b6a:	0000                	unimp
     b6c:	0000                	unimp
     b6e:	0000                	unimp
     b70:	0001                	nop
     b72:	da68                	sw	a0,116(a2)
     b74:	00000003          	lb	zero,0(zero) # 0 <_start-0x80000000>
     b78:	0000                	unimp
     b7a:	e000                	sd	s0,0(s0)
     b7c:	00000003          	lb	zero,0(zero) # 0 <_start-0x80000000>
     b80:	0000                	unimp
     b82:	0300                	addi	s0,sp,384
     b84:	8800                	.insn	2, 0x8800
     b86:	9f08                	.insn	2, 0x9f08
     b88:	03e0                	addi	s0,sp,460
     b8a:	0000                	unimp
     b8c:	0000                	unimp
     b8e:	0000                	unimp
     b90:	03ea                	slli	t2,t2,0x1a
     b92:	0000                	unimp
     b94:	0000                	unimp
     b96:	0000                	unimp
     b98:	0001                	nop
     b9a:	ea68                	sd	a0,208(a2)
     b9c:	00000003          	lb	zero,0(zero) # 0 <_start-0x80000000>
     ba0:	0000                	unimp
     ba2:	f000                	sd	s0,32(s0)
     ba4:	00000003          	lb	zero,0(zero) # 0 <_start-0x80000000>
     ba8:	0000                	unimp
     baa:	0300                	addi	s0,sp,384
     bac:	8800                	.insn	2, 0x8800
     bae:	9f08                	.insn	2, 0x9f08
     bb0:	03f0                	addi	a2,sp,460
     bb2:	0000                	unimp
     bb4:	0000                	unimp
     bb6:	0000                	unimp
     bb8:	0416                	slli	s0,s0,0x5
     bba:	0000                	unimp
     bbc:	0000                	unimp
     bbe:	0000                	unimp
     bc0:	0001                	nop
     bc2:	1668                	addi	a0,sp,812
     bc4:	0004                	.insn	2, 0x0004
     bc6:	0000                	unimp
     bc8:	0000                	unimp
     bca:	1c00                	addi	s0,sp,560
     bcc:	0004                	.insn	2, 0x0004
     bce:	0000                	unimp
     bd0:	0000                	unimp
     bd2:	0300                	addi	s0,sp,384
     bd4:	8800                	.insn	2, 0x8800
     bd6:	9f08                	.insn	2, 0x9f08
     bd8:	041c                	addi	a5,sp,512
     bda:	0000                	unimp
     bdc:	0000                	unimp
     bde:	0000                	unimp
     be0:	0428                	addi	a0,sp,520
     be2:	0000                	unimp
     be4:	0000                	unimp
     be6:	0000                	unimp
     be8:	0001                	nop
     bea:	2868                	fld	fa0,208(s0)
     bec:	0004                	.insn	2, 0x0004
     bee:	0000                	unimp
     bf0:	0000                	unimp
     bf2:	2e00                	fld	fs0,24(a2)
     bf4:	0004                	.insn	2, 0x0004
     bf6:	0000                	unimp
     bf8:	0000                	unimp
     bfa:	0300                	addi	s0,sp,384
     bfc:	8800                	.insn	2, 0x8800
     bfe:	9f08                	.insn	2, 0x9f08
     c00:	042e                	slli	s0,s0,0xb
     c02:	0000                	unimp
     c04:	0000                	unimp
     c06:	0000                	unimp
     c08:	0492                	slli	s1,s1,0x4
     c0a:	0000                	unimp
     c0c:	0000                	unimp
     c0e:	0000                	unimp
     c10:	0001                	nop
     c12:	9268                	.insn	2, 0x9268
     c14:	0004                	.insn	2, 0x0004
     c16:	0000                	unimp
     c18:	0000                	unimp
     c1a:	9800                	.insn	2, 0x9800
     c1c:	0004                	.insn	2, 0x0004
     c1e:	0000                	unimp
     c20:	0000                	unimp
     c22:	0300                	addi	s0,sp,384
     c24:	8800                	.insn	2, 0x8800
     c26:	9f08                	.insn	2, 0x9f08
     c28:	0498                	addi	a4,sp,576
     c2a:	0000                	unimp
     c2c:	0000                	unimp
     c2e:	0000                	unimp
     c30:	04d0                	addi	a2,sp,580
     c32:	0000                	unimp
     c34:	0000                	unimp
     c36:	0000                	unimp
     c38:	0001                	nop
     c3a:	d068                	sw	a0,100(s0)
     c3c:	0004                	.insn	2, 0x0004
     c3e:	0000                	unimp
     c40:	0000                	unimp
     c42:	ee00                	sd	s0,24(a2)
     c44:	0004                	.insn	2, 0x0004
     c46:	0000                	unimp
     c48:	0000                	unimp
     c4a:	0100                	addi	s0,sp,128
     c4c:	6500                	ld	s0,8(a0)
     c4e:	04ee                	slli	s1,s1,0x1b
     c50:	0000                	unimp
     c52:	0000                	unimp
     c54:	0000                	unimp
     c56:	0502                	c.slli64	a0
     c58:	0000                	unimp
     c5a:	0000                	unimp
     c5c:	0000                	unimp
     c5e:	0001                	nop
     c60:	0068                	addi	a0,sp,12
	...
     c6e:	0000                	unimp
     c70:	c000                	sw	s0,0(s0)
     c72:	0002                	c.slli64	zero
     c74:	0000                	unimp
     c76:	0000                	unimp
     c78:	c200                	sw	s0,0(a2)
     c7a:	0002                	c.slli64	zero
     c7c:	0000                	unimp
     c7e:	0000                	unimp
     c80:	0100                	addi	s0,sp,128
     c82:	6800                	ld	s0,16(s0)
     c84:	035c                	addi	a5,sp,388
     c86:	0000                	unimp
     c88:	0000                	unimp
     c8a:	0000                	unimp
     c8c:	0360                	addi	s0,sp,396
     c8e:	0000                	unimp
     c90:	0000                	unimp
     c92:	0000                	unimp
     c94:	0001                	nop
     c96:	6868                	ld	a0,208(s0)
     c98:	00000003          	lb	zero,0(zero) # 0 <_start-0x80000000>
     c9c:	0000                	unimp
     c9e:	7000                	ld	s0,32(s0)
     ca0:	00000003          	lb	zero,0(zero) # 0 <_start-0x80000000>
     ca4:	0000                	unimp
     ca6:	0100                	addi	s0,sp,128
     ca8:	6800                	ld	s0,16(s0)
     caa:	038e                	slli	t2,t2,0x3
     cac:	0000                	unimp
     cae:	0000                	unimp
     cb0:	0000                	unimp
     cb2:	03c6                	slli	t2,t2,0x11
     cb4:	0000                	unimp
     cb6:	0000                	unimp
     cb8:	0000                	unimp
     cba:	0001                	nop
     cbc:	d068                	sw	a0,100(s0)
     cbe:	0004                	.insn	2, 0x0004
     cc0:	0000                	unimp
     cc2:	0000                	unimp
     cc4:	da00                	sw	s0,48(a2)
     cc6:	0004                	.insn	2, 0x0004
     cc8:	0000                	unimp
     cca:	0000                	unimp
     ccc:	0100                	addi	s0,sp,128
     cce:	6800                	ld	s0,16(s0)
     cd0:	04dc                	addi	a5,sp,580
     cd2:	0000                	unimp
     cd4:	0000                	unimp
     cd6:	0000                	unimp
     cd8:	04ee                	slli	s1,s1,0x1b
     cda:	0000                	unimp
     cdc:	0000                	unimp
     cde:	0000                	unimp
     ce0:	000a                	c.slli	zero,0x2
     ce2:	0008f803          	.insn	4, 0x0008f803
     ce6:	0080                	addi	s0,sp,64
     ce8:	0000                	unimp
     cea:	9f00                	.insn	2, 0x9f00
	...
     cfc:	0290                	addi	a2,sp,320
     cfe:	0000                	unimp
     d00:	0000                	unimp
     d02:	0000                	unimp
     d04:	02c0                	addi	s0,sp,324
     d06:	0000                	unimp
     d08:	0000                	unimp
     d0a:	0000                	unimp
     d0c:	0001                	nop
     d0e:	c465                	beqz	s0,df6 <_start-0x7ffff20a>
     d10:	0002                	c.slli64	zero
     d12:	0000                	unimp
     d14:	0000                	unimp
     d16:	5400                	lw	s0,40(s0)
     d18:	00000003          	lb	zero,0(zero) # 0 <_start-0x80000000>
     d1c:	0000                	unimp
     d1e:	0100                	addi	s0,sp,128
     d20:	6500                	ld	s0,8(a0)
     d22:	03c8                	addi	a0,sp,452
     d24:	0000                	unimp
     d26:	0000                	unimp
     d28:	0000                	unimp
     d2a:	045a                	slli	s0,s0,0x16
     d2c:	0000                	unimp
     d2e:	0000                	unimp
     d30:	0000                	unimp
     d32:	0001                	nop
     d34:	8a65                	andi	a2,a2,25
     d36:	0004                	.insn	2, 0x0004
     d38:	0000                	unimp
     d3a:	0000                	unimp
     d3c:	9a00                	.insn	2, 0x9a00
     d3e:	0004                	.insn	2, 0x0004
     d40:	0000                	unimp
     d42:	0000                	unimp
     d44:	0100                	addi	s0,sp,128
     d46:	6500                	ld	s0,8(a0)
     d48:	04ba                	slli	s1,s1,0xe
     d4a:	0000                	unimp
     d4c:	0000                	unimp
     d4e:	0000                	unimp
     d50:	04d0                	addi	a2,sp,580
     d52:	0000                	unimp
     d54:	0000                	unimp
     d56:	0000                	unimp
     d58:	0001                	nop
     d5a:	0065                	c.nop	25
	...
     d68:	0000                	unimp
     d6a:	7600                	ld	s0,40(a2)
     d6c:	0002                	c.slli64	zero
     d6e:	0000                	unimp
     d70:	0000                	unimp
     d72:	7a00                	ld	s0,48(a2)
     d74:	0002                	c.slli64	zero
     d76:	0000                	unimp
     d78:	0000                	unimp
     d7a:	0800                	addi	s0,sp,16
     d7c:	7800                	ld	s0,48(s0)
     d7e:	9400                	.insn	2, 0x9400
     d80:	0801                	addi	a6,a6,0
     d82:	7a9f1aff 00000002 	.insn	12, 0x83000000000000027a9f1aff
     d8a:	83000000 
     d8e:	0002                	c.slli64	zero
     d90:	0000                	unimp
     d92:	0000                	unimp
     d94:	0100                	addi	s0,sp,128
     d96:	5a00                	lw	s0,48(a2)
     d98:	0288                	addi	a0,sp,320
     d9a:	0000                	unimp
     d9c:	0000                	unimp
     d9e:	0000                	unimp
     da0:	028c                	addi	a1,sp,320
     da2:	0000                	unimp
     da4:	0000                	unimp
     da6:	0000                	unimp
     da8:	0008                	.insn	2, 0x0008
     daa:	0078                	addi	a4,sp,12
     dac:	0194                	addi	a3,sp,192
     dae:	ff08                	sd	a0,56(a4)
     db0:	9f1a                	add	t5,t5,t1
     db2:	02a8                	addi	a0,sp,328
     db4:	0000                	unimp
     db6:	0000                	unimp
     db8:	0000                	unimp
     dba:	02c0                	addi	s0,sp,324
     dbc:	0000                	unimp
     dbe:	0000                	unimp
     dc0:	0000                	unimp
     dc2:	0006                	c.slli	zero,0x1
     dc4:	ff08007b          	.insn	4, 0xff08007b
     dc8:	9f1a                	add	t5,t5,t1
     dca:	02c4                	addi	s1,sp,324
     dcc:	0000                	unimp
     dce:	0000                	unimp
     dd0:	0000                	unimp
     dd2:	02ce                	slli	t0,t0,0x13
     dd4:	0000                	unimp
     dd6:	0000                	unimp
     dd8:	0000                	unimp
     dda:	0006                	c.slli	zero,0x1
     ddc:	ff08007b          	.insn	4, 0xff08007b
     de0:	9f1a                	add	t5,t5,t1
     de2:	02d0                	addi	a2,sp,324
     de4:	0000                	unimp
     de6:	0000                	unimp
     de8:	0000                	unimp
     dea:	02dc                	addi	a5,sp,324
     dec:	0000                	unimp
     dee:	0000                	unimp
     df0:	0000                	unimp
     df2:	0006                	c.slli	zero,0x1
     df4:	ff08007b          	.insn	4, 0xff08007b
     df8:	9f1a                	add	t5,t5,t1
     dfa:	02dc                	addi	a5,sp,324
     dfc:	0000                	unimp
     dfe:	0000                	unimp
     e00:	0000                	unimp
     e02:	030c                	addi	a1,sp,384
     e04:	0000                	unimp
     e06:	0000                	unimp
     e08:	0000                	unimp
     e0a:	0001                	nop
     e0c:	0c5e                	slli	s8,s8,0x17
     e0e:	00000003          	lb	zero,0(zero) # 0 <_start-0x80000000>
     e12:	0000                	unimp
     e14:	0e00                	addi	s0,sp,784
     e16:	00000003          	lb	zero,0(zero) # 0 <_start-0x80000000>
     e1a:	0000                	unimp
     e1c:	0800                	addi	s0,sp,16
     e1e:	7800                	ld	s0,48(s0)
     e20:	9400                	.insn	2, 0x9400
     e22:	0801                	addi	a6,a6,0
     e24:	0e9f1aff 00000003 	.insn	12, 0x16000000000000030e9f1aff
     e2c:	16000000 
     e30:	00000003          	lb	zero,0(zero) # 0 <_start-0x80000000>
     e34:	0000                	unimp
     e36:	0600                	addi	s0,sp,768
     e38:	7b00                	ld	s0,48(a4)
     e3a:	0800                	addi	s0,sp,16
     e3c:	209f1aff 00000003 	.insn	12, 0x3600000000000003209f1aff
     e44:	36000000 
     e48:	00000003          	lb	zero,0(zero) # 0 <_start-0x80000000>
     e4c:	0000                	unimp
     e4e:	0600                	addi	s0,sp,768
     e50:	7b00                	ld	s0,48(a4)
     e52:	0800                	addi	s0,sp,16
     e54:	369f1aff 00000003 	.insn	12, 0x3800000000000003369f1aff
     e5c:	38000000 
     e60:	00000003          	lb	zero,0(zero) # 0 <_start-0x80000000>
     e64:	0000                	unimp
     e66:	0100                	addi	s0,sp,128
     e68:	5e00                	lw	s0,56(a2)
     e6a:	0338                	addi	a4,sp,392
     e6c:	0000                	unimp
     e6e:	0000                	unimp
     e70:	0000                	unimp
     e72:	033a                	slli	t1,t1,0xe
     e74:	0000                	unimp
     e76:	0000                	unimp
     e78:	0000                	unimp
     e7a:	0008                	.insn	2, 0x0008
     e7c:	0078                	addi	a4,sp,12
     e7e:	0194                	addi	a3,sp,192
     e80:	ff08                	sd	a0,56(a4)
     e82:	9f1a                	add	t5,t5,t1
     e84:	033a                	slli	t1,t1,0xe
     e86:	0000                	unimp
     e88:	0000                	unimp
     e8a:	0000                	unimp
     e8c:	0346                	slli	t1,t1,0x11
     e8e:	0000                	unimp
     e90:	0000                	unimp
     e92:	0000                	unimp
     e94:	0006                	c.slli	zero,0x1
     e96:	ff08007b          	.insn	4, 0xff08007b
     e9a:	9f1a                	add	t5,t5,t1
     e9c:	0346                	slli	t1,t1,0x11
     e9e:	0000                	unimp
     ea0:	0000                	unimp
     ea2:	0000                	unimp
     ea4:	0000034b          	fnmsub.s	ft6,ft0,ft0,ft0,rne
     ea8:	0000                	unimp
     eaa:	0000                	unimp
     eac:	0008                	.insn	2, 0x0008
     eae:	007e                	c.slli	zero,0x1f
     eb0:	0194                	addi	a3,sp,192
     eb2:	ff08                	sd	a0,56(a4)
     eb4:	9f1a                	add	t5,t5,t1
     eb6:	0350                	addi	a2,sp,388
     eb8:	0000                	unimp
     eba:	0000                	unimp
     ebc:	0000                	unimp
     ebe:	036c                	addi	a1,sp,396
     ec0:	0000                	unimp
     ec2:	0000                	unimp
     ec4:	0000                	unimp
     ec6:	0006                	c.slli	zero,0x1
     ec8:	ff08007b          	.insn	4, 0xff08007b
     ecc:	9f1a                	add	t5,t5,t1
     ece:	036c                	addi	a1,sp,396
     ed0:	0000                	unimp
     ed2:	0000                	unimp
     ed4:	0000                	unimp
     ed6:	0370                	addi	a2,sp,396
     ed8:	0000                	unimp
     eda:	0000                	unimp
     edc:	0000                	unimp
     ede:	0008                	.insn	2, 0x0008
     ee0:	0088                	addi	a0,sp,64
     ee2:	0194                	addi	a3,sp,192
     ee4:	ff08                	sd	a0,56(a4)
     ee6:	9f1a                	add	t5,t5,t1
     ee8:	0370                	addi	a2,sp,396
     eea:	0000                	unimp
     eec:	0000                	unimp
     eee:	0000                	unimp
     ef0:	0372                	slli	t1,t1,0x1c
     ef2:	0000                	unimp
     ef4:	0000                	unimp
     ef6:	0000                	unimp
     ef8:	0006                	c.slli	zero,0x1
     efa:	ff08007b          	.insn	4, 0xff08007b
     efe:	9f1a                	add	t5,t5,t1
     f00:	0372                	slli	t1,t1,0x1c
     f02:	0000                	unimp
     f04:	0000                	unimp
     f06:	0000                	unimp
     f08:	00000377          	.insn	4, 0x0377
     f0c:	0000                	unimp
     f0e:	0000                	unimp
     f10:	0008                	.insn	2, 0x0008
     f12:	007e                	c.slli	zero,0x1f
     f14:	0194                	addi	a3,sp,192
     f16:	ff08                	sd	a0,56(a4)
     f18:	9f1a                	add	t5,t5,t1
     f1a:	0392                	slli	t2,t2,0x4
     f1c:	0000                	unimp
     f1e:	0000                	unimp
     f20:	0000                	unimp
     f22:	0398                	addi	a4,sp,448
     f24:	0000                	unimp
     f26:	0000                	unimp
     f28:	0000                	unimp
     f2a:	0008                	.insn	2, 0x0008
     f2c:	0088                	addi	a0,sp,64
     f2e:	0194                	addi	a3,sp,192
     f30:	ff08                	sd	a0,56(a4)
     f32:	9f1a                	add	t5,t5,t1
     f34:	0398                	addi	a4,sp,448
     f36:	0000                	unimp
     f38:	0000                	unimp
     f3a:	0000                	unimp
     f3c:	0000039b          	sext.w	t2,zero
     f40:	0000                	unimp
     f42:	0000                	unimp
     f44:	0001                	nop
     f46:	a45a                	fsd	fs6,8(sp)
     f48:	00000003          	lb	zero,0(zero) # 0 <_start-0x80000000>
     f4c:	0000                	unimp
     f4e:	a600                	fsd	fs0,8(a2)
     f50:	00000003          	lb	zero,0(zero) # 0 <_start-0x80000000>
     f54:	0000                	unimp
     f56:	0800                	addi	s0,sp,16
     f58:	8800                	.insn	2, 0x8800
     f5a:	9400                	.insn	2, 0x9400
     f5c:	0801                	addi	a6,a6,0
     f5e:	a69f1aff 00000003 	.insn	12, 0xb000000000000003a69f1aff
     f66:	b0000000 
     f6a:	00000003          	lb	zero,0(zero) # 0 <_start-0x80000000>
     f6e:	0000                	unimp
     f70:	0100                	addi	s0,sp,128
     f72:	5a00                	lw	s0,48(a2)
     f74:	03c8                	addi	a0,sp,452
     f76:	0000                	unimp
     f78:	0000                	unimp
     f7a:	0000                	unimp
     f7c:	03e8                	addi	a0,sp,460
     f7e:	0000                	unimp
     f80:	0000                	unimp
     f82:	0000                	unimp
     f84:	0006                	c.slli	zero,0x1
     f86:	ff08007b          	.insn	4, 0xff08007b
     f8a:	9f1a                	add	t5,t5,t1
     f8c:	03ea                	slli	t2,t2,0x1a
     f8e:	0000                	unimp
     f90:	0000                	unimp
     f92:	0000                	unimp
     f94:	03f4                	addi	a3,sp,460
     f96:	0000                	unimp
     f98:	0000                	unimp
     f9a:	0000                	unimp
     f9c:	0006                	c.slli	zero,0x1
     f9e:	ff08007b          	.insn	4, 0xff08007b
     fa2:	9f1a                	add	t5,t5,t1
     fa4:	0402                	c.slli64	s0
     fa6:	0000                	unimp
     fa8:	0000                	unimp
     faa:	0000                	unimp
     fac:	0406                	slli	s0,s0,0x1
     fae:	0000                	unimp
     fb0:	0000                	unimp
     fb2:	0000                	unimp
     fb4:	0006                	c.slli	zero,0x1
     fb6:	ff08007b          	.insn	4, 0xff08007b
     fba:	9f1a                	add	t5,t5,t1
     fbc:	041e                	slli	s0,s0,0x7
     fbe:	0000                	unimp
     fc0:	0000                	unimp
     fc2:	0000                	unimp
     fc4:	0422                	slli	s0,s0,0x8
     fc6:	0000                	unimp
     fc8:	0000                	unimp
     fca:	0000                	unimp
     fcc:	0006                	c.slli	zero,0x1
     fce:	ff08007b          	.insn	4, 0xff08007b
     fd2:	9f1a                	add	t5,t5,t1
     fd4:	048a                	slli	s1,s1,0x2
     fd6:	0000                	unimp
     fd8:	0000                	unimp
     fda:	0000                	unimp
     fdc:	048e                	slli	s1,s1,0x3
     fde:	0000                	unimp
     fe0:	0000                	unimp
     fe2:	0000                	unimp
     fe4:	0006                	c.slli	zero,0x1
     fe6:	ff08007b          	.insn	4, 0xff08007b
     fea:	9f1a                	add	t5,t5,t1
     fec:	04ba                	slli	s1,s1,0xe
     fee:	0000                	unimp
     ff0:	0000                	unimp
     ff2:	0000                	unimp
     ff4:	04bc                	addi	a5,sp,584
     ff6:	0000                	unimp
     ff8:	0000                	unimp
     ffa:	0000                	unimp
     ffc:	0006                	c.slli	zero,0x1
     ffe:	ff08007b          	.insn	4, 0xff08007b
    1002:	9f1a                	add	t5,t5,t1
    1004:	04bc                	addi	a5,sp,584
    1006:	0000                	unimp
    1008:	0000                	unimp
    100a:	0000                	unimp
    100c:	04c1                	addi	s1,s1,16
    100e:	0000                	unimp
    1010:	0000                	unimp
    1012:	0000                	unimp
    1014:	0008                	.insn	2, 0x0008
    1016:	007e                	c.slli	zero,0x1f
    1018:	0194                	addi	a3,sp,192
    101a:	ff08                	sd	a0,56(a4)
    101c:	9f1a                	add	t5,t5,t1
    101e:	04c4                	addi	s1,sp,580
    1020:	0000                	unimp
    1022:	0000                	unimp
    1024:	0000                	unimp
    1026:	04c6                	slli	s1,s1,0x11
    1028:	0000                	unimp
    102a:	0000                	unimp
    102c:	0000                	unimp
    102e:	0006                	c.slli	zero,0x1
    1030:	ff08007b          	.insn	4, 0xff08007b
    1034:	9f1a                	add	t5,t5,t1
    1036:	04c6                	slli	s1,s1,0x11
    1038:	0000                	unimp
    103a:	0000                	unimp
    103c:	0000                	unimp
    103e:	000004cb          	fnmsub.s	fs1,ft0,ft0,ft0,rne
    1042:	0000                	unimp
    1044:	0000                	unimp
    1046:	0008                	.insn	2, 0x0008
    1048:	007e                	c.slli	zero,0x1f
    104a:	0194                	addi	a3,sp,192
    104c:	ff08                	sd	a0,56(a4)
    104e:	9f1a                	add	t5,t5,t1
    1050:	04d4                	addi	a3,sp,580
    1052:	0000                	unimp
    1054:	0000                	unimp
    1056:	0000                	unimp
    1058:	04da                	slli	s1,s1,0x16
    105a:	0000                	unimp
    105c:	0000                	unimp
    105e:	0000                	unimp
    1060:	0008                	.insn	2, 0x0008
    1062:	0088                	addi	a0,sp,64
    1064:	0194                	addi	a3,sp,192
    1066:	ff08                	sd	a0,56(a4)
    1068:	9f1a                	add	t5,t5,t1
    106a:	04da                	slli	s1,s1,0x16
    106c:	0000                	unimp
    106e:	0000                	unimp
    1070:	0000                	unimp
    1072:	04dc                	addi	a5,sp,580
    1074:	0000                	unimp
    1076:	0000                	unimp
    1078:	0000                	unimp
    107a:	0006                	c.slli	zero,0x1
    107c:	007a                	c.slli	zero,0x1e
    107e:	ff08                	sd	a0,56(a4)
    1080:	9f1a                	add	t5,t5,t1
    1082:	04dc                	addi	a5,sp,580
    1084:	0000                	unimp
    1086:	0000                	unimp
    1088:	0000                	unimp
    108a:	04ee                	slli	s1,s1,0x1b
    108c:	0000                	unimp
    108e:	0000                	unimp
    1090:	0000                	unimp
    1092:	0006                	c.slli	zero,0x1
    1094:	ff08007b          	.insn	4, 0xff08007b
    1098:	9f1a                	add	t5,t5,t1
    109a:	04ee                	slli	s1,s1,0x1b
    109c:	0000                	unimp
    109e:	0000                	unimp
    10a0:	0000                	unimp
    10a2:	050a                	slli	a0,a0,0x2
    10a4:	0000                	unimp
    10a6:	0000                	unimp
    10a8:	0000                	unimp
    10aa:	0001                	nop
    10ac:	005a                	c.slli	zero,0x16
	...
    10ba:	0000                	unimp
    10bc:	e000                	sd	s0,0(s0)
    10be:	00000003          	lb	zero,0(zero) # 0 <_start-0x80000000>
    10c2:	0000                	unimp
    10c4:	ea00                	sd	s0,16(a2)
    10c6:	00000003          	lb	zero,0(zero) # 0 <_start-0x80000000>
    10ca:	0000                	unimp
    10cc:	0100                	addi	s0,sp,128
    10ce:	6300                	ld	s0,0(a4)
    10d0:	03f2                	slli	t2,t2,0x1c
    10d2:	0000                	unimp
    10d4:	0000                	unimp
    10d6:	0000                	unimp
    10d8:	03fe                	slli	t2,t2,0x1f
    10da:	0000                	unimp
    10dc:	0000                	unimp
    10de:	0000                	unimp
    10e0:	0001                	nop
    10e2:	0003fe63          	bgeu	t2,zero,10fe <_start-0x7fffef02>
    10e6:	0000                	unimp
    10e8:	0000                	unimp
    10ea:	0200                	addi	s0,sp,256
    10ec:	0004                	.insn	2, 0x0004
    10ee:	0000                	unimp
    10f0:	0000                	unimp
    10f2:	0100                	addi	s0,sp,128
    10f4:	5f00                	lw	s0,56(a4)
    10f6:	042e                	slli	s0,s0,0xb
    10f8:	0000                	unimp
    10fa:	0000                	unimp
    10fc:	0000                	unimp
    10fe:	0444                	addi	s1,sp,516
    1100:	0000                	unimp
    1102:	0000                	unimp
    1104:	0000                	unimp
    1106:	0001                	nop
    1108:	005f 0000 0000      	.insn	6, 0x005f
	...
    1116:	0000                	unimp
    1118:	1400                	addi	s0,sp,544
    111a:	0004                	.insn	2, 0x0004
    111c:	0000                	unimp
    111e:	0000                	unimp
    1120:	1600                	addi	s0,sp,800
    1122:	0004                	.insn	2, 0x0004
    1124:	0000                	unimp
    1126:	0000                	unimp
    1128:	0200                	addi	s0,sp,256
    112a:	4000                	lw	s0,0(s0)
    112c:	169f 0004 0000      	.insn	6, 0x0004169f
    1132:	0000                	unimp
    1134:	1e00                	addi	s0,sp,816
    1136:	0004                	.insn	2, 0x0004
    1138:	0000                	unimp
    113a:	0000                	unimp
    113c:	0100                	addi	s0,sp,128
    113e:	5b00                	lw	s0,48(a4)
    1140:	0422                	slli	s0,s0,0x8
    1142:	0000                	unimp
    1144:	0000                	unimp
    1146:	0000                	unimp
    1148:	0462                	slli	s0,s0,0x18
    114a:	0000                	unimp
    114c:	0000                	unimp
    114e:	0000                	unimp
    1150:	0001                	nop
    1152:	0004905b          	.insn	4, 0x0004905b
    1156:	0000                	unimp
    1158:	0000                	unimp
    115a:	9a00                	.insn	2, 0x9a00
    115c:	0004                	.insn	2, 0x0004
    115e:	0000                	unimp
    1160:	0000                	unimp
    1162:	0100                	addi	s0,sp,128
    1164:	5b00                	lw	s0,48(a4)
	...
    1176:	0290                	addi	a2,sp,320
    1178:	0000                	unimp
    117a:	0000                	unimp
    117c:	0000                	unimp
    117e:	02a0                	addi	s0,sp,328
    1180:	0000                	unimp
    1182:	0000                	unimp
    1184:	0000                	unimp
    1186:	0002                	c.slli64	zero
    1188:	9f30                	.insn	2, 0x9f30
    118a:	02a0                	addi	s0,sp,328
    118c:	0000                	unimp
    118e:	0000                	unimp
    1190:	0000                	unimp
    1192:	02c0                	addi	s0,sp,324
    1194:	0000                	unimp
    1196:	0000                	unimp
    1198:	0000                	unimp
    119a:	0001                	nop
    119c:	c45c                	sw	a5,12(s0)
    119e:	0002                	c.slli64	zero
    11a0:	0000                	unimp
    11a2:	0000                	unimp
    11a4:	4b00                	lw	s0,16(a4)
    11a6:	00000003          	lb	zero,0(zero) # 0 <_start-0x80000000>
    11aa:	0000                	unimp
    11ac:	0100                	addi	s0,sp,128
    11ae:	5c00                	lw	s0,56(s0)
    11b0:	0350                	addi	a2,sp,388
    11b2:	0000                	unimp
    11b4:	0000                	unimp
    11b6:	0000                	unimp
    11b8:	00000377          	.insn	4, 0x0377
    11bc:	0000                	unimp
    11be:	0000                	unimp
    11c0:	0001                	nop
    11c2:	c85c                	sw	a5,20(s0)
    11c4:	00000003          	lb	zero,0(zero) # 0 <_start-0x80000000>
    11c8:	0000                	unimp
    11ca:	f900                	sd	s0,48(a0)
    11cc:	00000003          	lb	zero,0(zero) # 0 <_start-0x80000000>
    11d0:	0000                	unimp
    11d2:	0100                	addi	s0,sp,128
    11d4:	5c00                	lw	s0,56(s0)
    11d6:	0402                	c.slli64	s0
    11d8:	0000                	unimp
    11da:	0000                	unimp
    11dc:	0000                	unimp
    11de:	0404                	addi	s1,sp,512
    11e0:	0000                	unimp
    11e2:	0000                	unimp
    11e4:	0000                	unimp
    11e6:	0001                	nop
    11e8:	045c                	addi	a5,sp,516
    11ea:	0004                	.insn	2, 0x0004
    11ec:	0000                	unimp
    11ee:	0000                	unimp
    11f0:	1600                	addi	s0,sp,800
    11f2:	0004                	.insn	2, 0x0004
    11f4:	0000                	unimp
    11f6:	0000                	unimp
    11f8:	0200                	addi	s0,sp,256
    11fa:	3100                	fld	fs0,32(a0)
    11fc:	1e9f 0004 0000      	.insn	6, 0x00041e9f
    1202:	0000                	unimp
    1204:	2e00                	fld	fs0,24(a2)
    1206:	0004                	.insn	2, 0x0004
    1208:	0000                	unimp
    120a:	0000                	unimp
    120c:	0100                	addi	s0,sp,128
    120e:	5c00                	lw	s0,56(s0)
    1210:	048a                	slli	s1,s1,0x2
    1212:	0000                	unimp
    1214:	0000                	unimp
    1216:	0000                	unimp
    1218:	049a                	slli	s1,s1,0x6
    121a:	0000                	unimp
    121c:	0000                	unimp
    121e:	0000                	unimp
    1220:	0001                	nop
    1222:	ba5c                	fsd	fa5,176(a2)
    1224:	0004                	.insn	2, 0x0004
    1226:	0000                	unimp
    1228:	0000                	unimp
    122a:	c100                	sw	s0,0(a0)
    122c:	0004                	.insn	2, 0x0004
    122e:	0000                	unimp
    1230:	0000                	unimp
    1232:	0100                	addi	s0,sp,128
    1234:	5c00                	lw	s0,56(s0)
    1236:	04c4                	addi	s1,sp,580
    1238:	0000                	unimp
    123a:	0000                	unimp
    123c:	0000                	unimp
    123e:	000004cb          	fnmsub.s	fs1,ft0,ft0,ft0,rne
    1242:	0000                	unimp
    1244:	0000                	unimp
    1246:	0001                	nop
    1248:	dc5c                	sw	a5,60(s0)
    124a:	0004                	.insn	2, 0x0004
    124c:	0000                	unimp
    124e:	0000                	unimp
    1250:	ee00                	sd	s0,24(a2)
    1252:	0004                	.insn	2, 0x0004
    1254:	0000                	unimp
    1256:	0000                	unimp
    1258:	0100                	addi	s0,sp,128
    125a:	5c00                	lw	s0,56(s0)
	...
    126c:	0290                	addi	a2,sp,320
    126e:	0000                	unimp
    1270:	0000                	unimp
    1272:	0000                	unimp
    1274:	02a0                	addi	s0,sp,328
    1276:	0000                	unimp
    1278:	0000                	unimp
    127a:	0000                	unimp
    127c:	ff090003          	lb	zero,-16(s2) # 1cff0 <_start-0x7ffe3010>
    1280:	a09f 0002 0000      	.insn	6, 0x0002a09f
    1286:	0000                	unimp
    1288:	1c00                	addi	s0,sp,560
    128a:	00000003          	lb	zero,0(zero) # 0 <_start-0x80000000>
    128e:	0000                	unimp
    1290:	0100                	addi	s0,sp,128
    1292:	6600                	ld	s0,8(a2)
    1294:	0320                	addi	s0,sp,392
    1296:	0000                	unimp
    1298:	0000                	unimp
    129a:	0000                	unimp
    129c:	032a                	slli	t1,t1,0xa
    129e:	0000                	unimp
    12a0:	0000                	unimp
    12a2:	0000                	unimp
    12a4:	0001                	nop
    12a6:	2e66                	fld	ft8,88(sp)
    12a8:	00000003          	lb	zero,0(zero) # 0 <_start-0x80000000>
    12ac:	0000                	unimp
    12ae:	3000                	fld	fs0,32(s0)
    12b0:	00000003          	lb	zero,0(zero) # 0 <_start-0x80000000>
    12b4:	0000                	unimp
    12b6:	0100                	addi	s0,sp,128
    12b8:	5f00                	lw	s0,56(a4)
    12ba:	0330                	addi	a2,sp,392
    12bc:	0000                	unimp
    12be:	0000                	unimp
    12c0:	0000                	unimp
    12c2:	038e                	slli	t2,t2,0x3
    12c4:	0000                	unimp
    12c6:	0000                	unimp
    12c8:	0000                	unimp
    12ca:	0001                	nop
    12cc:	8e66                	mv	t3,s9
    12ce:	00000003          	lb	zero,0(zero) # 0 <_start-0x80000000>
    12d2:	0000                	unimp
    12d4:	9800                	.insn	2, 0x9800
    12d6:	00000003          	lb	zero,0(zero) # 0 <_start-0x80000000>
    12da:	0000                	unimp
    12dc:	0200                	addi	s0,sp,256
    12de:	3000                	fld	fs0,32(s0)
    12e0:	989f 0003 0000      	.insn	6, 0x0003989f
    12e6:	0000                	unimp
    12e8:	8400                	.insn	2, 0x8400
    12ea:	0004                	.insn	2, 0x0004
    12ec:	0000                	unimp
    12ee:	0000                	unimp
    12f0:	0100                	addi	s0,sp,128
    12f2:	6600                	ld	s0,8(a2)
    12f4:	048a                	slli	s1,s1,0x2
    12f6:	0000                	unimp
    12f8:	0000                	unimp
    12fa:	0000                	unimp
    12fc:	049a                	slli	s1,s1,0x6
    12fe:	0000                	unimp
    1300:	0000                	unimp
    1302:	0000                	unimp
    1304:	0001                	nop
    1306:	ba66                	fsd	fs9,304(sp)
    1308:	0004                	.insn	2, 0x0004
    130a:	0000                	unimp
    130c:	0000                	unimp
    130e:	ee00                	sd	s0,24(a2)
    1310:	0004                	.insn	2, 0x0004
    1312:	0000                	unimp
    1314:	0000                	unimp
    1316:	0100                	addi	s0,sp,128
    1318:	6600                	ld	s0,8(a2)
	...
    132a:	0290                	addi	a2,sp,320
    132c:	0000                	unimp
    132e:	0000                	unimp
    1330:	0000                	unimp
    1332:	02a0                	addi	s0,sp,328
    1334:	0000                	unimp
    1336:	0000                	unimp
    1338:	0000                	unimp
    133a:	ff090003          	lb	zero,-16(s2)
    133e:	a09f 0002 0000      	.insn	6, 0x0002a09f
    1344:	0000                	unimp
    1346:	c000                	sw	s0,0(s0)
    1348:	0002                	c.slli64	zero
    134a:	0000                	unimp
    134c:	0000                	unimp
    134e:	0100                	addi	s0,sp,128
    1350:	6300                	ld	s0,0(a4)
    1352:	02c4                	addi	s1,sp,324
    1354:	0000                	unimp
    1356:	0000                	unimp
    1358:	0000                	unimp
    135a:	02d0                	addi	a2,sp,324
    135c:	0000                	unimp
    135e:	0000                	unimp
    1360:	0000                	unimp
    1362:	0001                	nop
    1364:	0002d063          	bgez	t0,1364 <_start-0x7fffec9c>
    1368:	0000                	unimp
    136a:	0000                	unimp
    136c:	d400                	sw	s0,40(s0)
    136e:	0002                	c.slli64	zero
    1370:	0000                	unimp
    1372:	0000                	unimp
    1374:	0200                	addi	s0,sp,256
    1376:	3000                	fld	fs0,32(s0)
    1378:	d49f 0002 0000      	.insn	6, 0x0002d49f
    137e:	0000                	unimp
    1380:	1200                	addi	s0,sp,288
    1382:	00000003          	lb	zero,0(zero) # 0 <_start-0x80000000>
    1386:	0000                	unimp
    1388:	0100                	addi	s0,sp,128
    138a:	6300                	ld	s0,0(a4)
    138c:	0316                	slli	t1,t1,0x5
    138e:	0000                	unimp
    1390:	0000                	unimp
    1392:	0000                	unimp
    1394:	031e                	slli	t1,t1,0x7
    1396:	0000                	unimp
    1398:	0000                	unimp
    139a:	0000                	unimp
    139c:	0001                	nop
    139e:	00031e63          	bnez	t1,13ba <_start-0x7fffec46>
    13a2:	0000                	unimp
    13a4:	0000                	unimp
    13a6:	2000                	fld	fs0,0(s0)
    13a8:	00000003          	lb	zero,0(zero) # 0 <_start-0x80000000>
    13ac:	0000                	unimp
    13ae:	0100                	addi	s0,sp,128
    13b0:	6600                	ld	s0,8(a2)
    13b2:	0320                	addi	s0,sp,392
    13b4:	0000                	unimp
    13b6:	0000                	unimp
    13b8:	0000                	unimp
    13ba:	0344                	addi	s1,sp,388
    13bc:	0000                	unimp
    13be:	0000                	unimp
    13c0:	0000                	unimp
    13c2:	0001                	nop
    13c4:	00035063          	bgez	t1,13c4 <_start-0x7fffec3c>
    13c8:	0000                	unimp
    13ca:	0000                	unimp
    13cc:	b000                	fsd	fs0,32(s0)
    13ce:	00000003          	lb	zero,0(zero) # 0 <_start-0x80000000>
    13d2:	0000                	unimp
    13d4:	0100                	addi	s0,sp,128
    13d6:	6300                	ld	s0,0(a4)
    13d8:	03c8                	addi	a0,sp,452
    13da:	0000                	unimp
    13dc:	0000                	unimp
    13de:	0000                	unimp
    13e0:	03d6                	slli	t2,t2,0x15
    13e2:	0000                	unimp
    13e4:	0000                	unimp
    13e6:	0000                	unimp
    13e8:	0001                	nop
    13ea:	0003da63          	bgez	t2,13fe <_start-0x7fffec02>
    13ee:	0000                	unimp
    13f0:	0000                	unimp
    13f2:	de00                	sw	s0,56(a2)
    13f4:	00000003          	lb	zero,0(zero) # 0 <_start-0x80000000>
    13f8:	0000                	unimp
    13fa:	0100                	addi	s0,sp,128
    13fc:	6300                	ld	s0,0(a4)
    13fe:	03ea                	slli	t2,t2,0x1a
    1400:	0000                	unimp
    1402:	0000                	unimp
    1404:	0000                	unimp
    1406:	03ee                	slli	t2,t2,0x1b
    1408:	0000                	unimp
    140a:	0000                	unimp
    140c:	0000                	unimp
    140e:	0001                	nop
    1410:	00040263          	beqz	s0,1414 <_start-0x7fffebec>
    1414:	0000                	unimp
    1416:	0000                	unimp
    1418:	2e00                	fld	fs0,24(a2)
    141a:	0004                	.insn	2, 0x0004
    141c:	0000                	unimp
    141e:	0000                	unimp
    1420:	0100                	addi	s0,sp,128
    1422:	6300                	ld	s0,0(a4)
    1424:	048a                	slli	s1,s1,0x2
    1426:	0000                	unimp
    1428:	0000                	unimp
    142a:	0000                	unimp
    142c:	049a                	slli	s1,s1,0x6
    142e:	0000                	unimp
    1430:	0000                	unimp
    1432:	0000                	unimp
    1434:	0001                	nop
    1436:	0004ba63          	.insn	4, 0x0004ba63
    143a:	0000                	unimp
    143c:	0000                	unimp
    143e:	ee00                	sd	s0,24(a2)
    1440:	0004                	.insn	2, 0x0004
    1442:	0000                	unimp
    1444:	0000                	unimp
    1446:	0100                	addi	s0,sp,128
    1448:	6300                	ld	s0,0(a4)
	...
    145a:	0290                	addi	a2,sp,320
    145c:	0000                	unimp
    145e:	0000                	unimp
    1460:	0000                	unimp
    1462:	02a0                	addi	s0,sp,328
    1464:	0000                	unimp
    1466:	0000                	unimp
    1468:	0000                	unimp
    146a:	0002                	c.slli64	zero
    146c:	9f30                	.insn	2, 0x9f30
    146e:	0332                	slli	t1,t1,0xc
    1470:	0000                	unimp
    1472:	0000                	unimp
    1474:	0000                	unimp
    1476:	0336                	slli	t1,t1,0xd
    1478:	0000                	unimp
    147a:	0000                	unimp
    147c:	0000                	unimp
    147e:	0002                	c.slli64	zero
    1480:	9f31                	addw	a4,a4,a2
	...
    1492:	0290                	addi	a2,sp,320
    1494:	0000                	unimp
    1496:	0000                	unimp
    1498:	0000                	unimp
    149a:	02a0                	addi	s0,sp,328
    149c:	0000                	unimp
    149e:	0000                	unimp
    14a0:	0000                	unimp
    14a2:	20080003          	lb	zero,512(a6)
    14a6:	a09f 0002 0000      	.insn	6, 0x0002a09f
    14ac:	0000                	unimp
    14ae:	c000                	sw	s0,0(s0)
    14b0:	0002                	c.slli64	zero
    14b2:	0000                	unimp
    14b4:	0000                	unimp
    14b6:	0100                	addi	s0,sp,128
    14b8:	6700                	ld	s0,8(a4)
    14ba:	02c4                	addi	s1,sp,324
    14bc:	0000                	unimp
    14be:	0000                	unimp
    14c0:	0000                	unimp
    14c2:	02c6                	slli	t0,t0,0x11
    14c4:	0000                	unimp
    14c6:	0000                	unimp
    14c8:	0000                	unimp
    14ca:	0001                	nop
    14cc:	0002ca67          	.insn	4, 0x0002ca67
    14d0:	0000                	unimp
    14d2:	0000                	unimp
    14d4:	8200                	.insn	2, 0x8200
    14d6:	00000003          	lb	zero,0(zero) # 0 <_start-0x80000000>
    14da:	0000                	unimp
    14dc:	0100                	addi	s0,sp,128
    14de:	6700                	ld	s0,8(a4)
    14e0:	03c8                	addi	a0,sp,452
    14e2:	0000                	unimp
    14e4:	0000                	unimp
    14e6:	0000                	unimp
    14e8:	0430                	addi	a2,sp,520
    14ea:	0000                	unimp
    14ec:	0000                	unimp
    14ee:	0000                	unimp
    14f0:	0001                	nop
    14f2:	00048a67          	jalr	s4,s1
    14f6:	0000                	unimp
    14f8:	0000                	unimp
    14fa:	9a00                	.insn	2, 0x9a00
    14fc:	0004                	.insn	2, 0x0004
    14fe:	0000                	unimp
    1500:	0000                	unimp
    1502:	0100                	addi	s0,sp,128
    1504:	6700                	ld	s0,8(a4)
    1506:	04ba                	slli	s1,s1,0xe
    1508:	0000                	unimp
    150a:	0000                	unimp
    150c:	0000                	unimp
    150e:	04ee                	slli	s1,s1,0x1b
    1510:	0000                	unimp
    1512:	0000                	unimp
    1514:	0000                	unimp
    1516:	0001                	nop
    1518:	00000067          	jr	zero # 0 <_start-0x80000000>
	...
    1528:	ca00                	sw	s0,16(a2)
    152a:	00000003          	lb	zero,0(zero) # 0 <_start-0x80000000>
    152e:	0000                	unimp
    1530:	e000                	sd	s0,0(s0)
    1532:	00000003          	lb	zero,0(zero) # 0 <_start-0x80000000>
    1536:	0000                	unimp
    1538:	0a00                	addi	s0,sp,272
    153a:	f200                	sd	s0,32(a2)
    153c:	000006b3          	add	a3,zero,zero
    1540:	0000                	unimp
    1542:	0000                	unimp
    1544:	ea00                	sd	s0,16(a2)
    1546:	00000003          	lb	zero,0(zero) # 0 <_start-0x80000000>
    154a:	0000                	unimp
    154c:	f200                	sd	s0,32(a2)
    154e:	00000003          	lb	zero,0(zero) # 0 <_start-0x80000000>
    1552:	0000                	unimp
    1554:	0a00                	addi	s0,sp,272
    1556:	f200                	sd	s0,32(a2)
    1558:	000006b3          	add	a3,zero,zero
	...
    1570:	ca00                	sw	s0,16(a2)
    1572:	00000003          	lb	zero,0(zero) # 0 <_start-0x80000000>
    1576:	0000                	unimp
    1578:	e000                	sd	s0,0(s0)
    157a:	00000003          	lb	zero,0(zero) # 0 <_start-0x80000000>
    157e:	0000                	unimp
    1580:	0100                	addi	s0,sp,128
    1582:	5c00                	lw	s0,56(s0)
    1584:	03ea                	slli	t2,t2,0x1a
    1586:	0000                	unimp
    1588:	0000                	unimp
    158a:	0000                	unimp
    158c:	03f2                	slli	t2,t2,0x1c
    158e:	0000                	unimp
    1590:	0000                	unimp
    1592:	0000                	unimp
    1594:	0001                	nop
    1596:	005c                	addi	a5,sp,4
	...
    15a4:	0000                	unimp
    15a6:	1400                	addi	s0,sp,544
    15a8:	0004                	.insn	2, 0x0004
    15aa:	0000                	unimp
    15ac:	0000                	unimp
    15ae:	1e00                	addi	s0,sp,816
    15b0:	0004                	.insn	2, 0x0004
    15b2:	0000                	unimp
    15b4:	0000                	unimp
    15b6:	0a00                	addi	s0,sp,272
    15b8:	f200                	sd	s0,32(a2)
    15ba:	000006b3          	add	a3,zero,zero
    15be:	0000                	unimp
    15c0:	0000                	unimp
    15c2:	2200                	fld	fs0,0(a2)
    15c4:	0004                	.insn	2, 0x0004
    15c6:	0000                	unimp
    15c8:	0000                	unimp
    15ca:	2e00                	fld	fs0,24(a2)
    15cc:	0004                	.insn	2, 0x0004
    15ce:	0000                	unimp
    15d0:	0000                	unimp
    15d2:	0a00                	addi	s0,sp,272
    15d4:	f200                	sd	s0,32(a2)
    15d6:	000006b3          	add	a3,zero,zero
    15da:	0000                	unimp
    15dc:	0000                	unimp
    15de:	9000                	.insn	2, 0x9000
    15e0:	0004                	.insn	2, 0x0004
    15e2:	0000                	unimp
    15e4:	0000                	unimp
    15e6:	9a00                	.insn	2, 0x9a00
    15e8:	0004                	.insn	2, 0x0004
    15ea:	0000                	unimp
    15ec:	0000                	unimp
    15ee:	0a00                	addi	s0,sp,272
    15f0:	f200                	sd	s0,32(a2)
    15f2:	000006b3          	add	a3,zero,zero
	...
    160a:	1400                	addi	s0,sp,544
    160c:	0004                	.insn	2, 0x0004
    160e:	0000                	unimp
    1610:	0000                	unimp
    1612:	1600                	addi	s0,sp,800
    1614:	0004                	.insn	2, 0x0004
    1616:	0000                	unimp
    1618:	0000                	unimp
    161a:	0200                	addi	s0,sp,256
    161c:	3100                	fld	fs0,32(a0)
    161e:	229f 0004 0000      	.insn	6, 0x0004229f
    1624:	0000                	unimp
    1626:	2e00                	fld	fs0,24(a2)
    1628:	0004                	.insn	2, 0x0004
    162a:	0000                	unimp
    162c:	0000                	unimp
    162e:	0100                	addi	s0,sp,128
    1630:	5c00                	lw	s0,56(s0)
    1632:	0490                	addi	a2,sp,576
    1634:	0000                	unimp
    1636:	0000                	unimp
    1638:	0000                	unimp
    163a:	049a                	slli	s1,s1,0x6
    163c:	0000                	unimp
    163e:	0000                	unimp
    1640:	0000                	unimp
    1642:	0001                	nop
    1644:	005c                	addi	a5,sp,4
	...
    1652:	0000                	unimp
    1654:	3000                	fld	fs0,32(s0)
    1656:	0004                	.insn	2, 0x0004
    1658:	0000                	unimp
    165a:	0000                	unimp
    165c:	8a00                	.insn	2, 0x8a00
    165e:	0004                	.insn	2, 0x0004
    1660:	0000                	unimp
    1662:	0000                	unimp
    1664:	0100                	addi	s0,sp,128
    1666:	6200                	ld	s0,0(a2)
    1668:	049a                	slli	s1,s1,0x6
    166a:	0000                	unimp
    166c:	0000                	unimp
    166e:	0000                	unimp
    1670:	04ba                	slli	s1,s1,0xe
    1672:	0000                	unimp
    1674:	0000                	unimp
    1676:	0000                	unimp
    1678:	0001                	nop
    167a:	0062                	c.slli	zero,0x18
	...
    1688:	0000                	unimp
    168a:	3000                	fld	fs0,32(s0)
    168c:	0004                	.insn	2, 0x0004
    168e:	0000                	unimp
    1690:	0000                	unimp
    1692:	8a00                	.insn	2, 0x8a00
    1694:	0004                	.insn	2, 0x0004
    1696:	0000                	unimp
    1698:	0000                	unimp
    169a:	0100                	addi	s0,sp,128
    169c:	5900                	lw	s0,48(a0)
    169e:	049a                	slli	s1,s1,0x6
    16a0:	0000                	unimp
    16a2:	0000                	unimp
    16a4:	0000                	unimp
    16a6:	04ba                	slli	s1,s1,0xe
    16a8:	0000                	unimp
    16aa:	0000                	unimp
    16ac:	0000                	unimp
    16ae:	0001                	nop
    16b0:	0059                	c.nop	22
	...
    16be:	0000                	unimp
    16c0:	3000                	fld	fs0,32(s0)
    16c2:	0004                	.insn	2, 0x0004
    16c4:	0000                	unimp
    16c6:	0000                	unimp
    16c8:	6200                	ld	s0,0(a2)
    16ca:	0004                	.insn	2, 0x0004
    16cc:	0000                	unimp
    16ce:	0000                	unimp
    16d0:	0100                	addi	s0,sp,128
    16d2:	5f00                	lw	s0,56(a4)
	...
    16e4:	0430                	addi	a2,sp,520
    16e6:	0000                	unimp
    16e8:	0000                	unimp
    16ea:	0000                	unimp
    16ec:	0462                	slli	s0,s0,0x18
    16ee:	0000                	unimp
    16f0:	0000                	unimp
    16f2:	0000                	unimp
    16f4:	0001                	nop
    16f6:	0000005b          	.insn	4, 0x005b
	...
    1706:	3000                	fld	fs0,32(s0)
    1708:	0004                	.insn	2, 0x0004
    170a:	0000                	unimp
    170c:	0000                	unimp
    170e:	5a00                	lw	s0,48(a2)
    1710:	0004                	.insn	2, 0x0004
    1712:	0000                	unimp
    1714:	0000                	unimp
    1716:	0100                	addi	s0,sp,128
    1718:	6600                	ld	s0,8(a2)
    171a:	045a                	slli	s0,s0,0x16
    171c:	0000                	unimp
    171e:	0000                	unimp
    1720:	0000                	unimp
    1722:	046e                	slli	s0,s0,0x1b
    1724:	0000                	unimp
    1726:	0000                	unimp
    1728:	0000                	unimp
    172a:	0001                	nop
    172c:	0065                	c.nop	25
	...
    173a:	0000                	unimp
    173c:	3000                	fld	fs0,32(s0)
    173e:	0004                	.insn	2, 0x0004
    1740:	0000                	unimp
    1742:	0000                	unimp
    1744:	8000                	.insn	2, 0x8000
    1746:	0004                	.insn	2, 0x0004
    1748:	0000                	unimp
    174a:	0000                	unimp
    174c:	0100                	addi	s0,sp,128
    174e:	6700                	ld	s0,8(a4)
	...
    1760:	0430                	addi	a2,sp,520
    1762:	0000                	unimp
    1764:	0000                	unimp
    1766:	0000                	unimp
    1768:	0436                	slli	s0,s0,0xd
    176a:	0000                	unimp
    176c:	0000                	unimp
    176e:	0000                	unimp
    1770:	0002                	c.slli64	zero
    1772:	9f30                	.insn	2, 0x9f30
    1774:	0436                	slli	s0,s0,0xd
    1776:	0000                	unimp
    1778:	0000                	unimp
    177a:	0000                	unimp
    177c:	0444                	addi	s1,sp,516
    177e:	0000                	unimp
    1780:	0000                	unimp
    1782:	0000                	unimp
    1784:	0002                	c.slli64	zero
    1786:	9f31                	addw	a4,a4,a2
    1788:	0444                	addi	s1,sp,516
    178a:	0000                	unimp
    178c:	0000                	unimp
    178e:	0000                	unimp
    1790:	0456                	slli	s0,s0,0x15
    1792:	0000                	unimp
    1794:	0000                	unimp
    1796:	0000                	unimp
    1798:	0001                	nop
    179a:	00046e63          	bltu	s0,zero,17b6 <_start-0x7fffe84a>
    179e:	0000                	unimp
    17a0:	0000                	unimp
    17a2:	8a00                	.insn	2, 0x8a00
    17a4:	0004                	.insn	2, 0x0004
    17a6:	0000                	unimp
    17a8:	0000                	unimp
    17aa:	0300                	addi	s0,sp,384
    17ac:	8300                	.insn	2, 0x8300
    17ae:	049a9f7f 00000000 	.insn	12, 0x04a0000000000000049a9f7f
    17b6:	04a00000 
    17ba:	0000                	unimp
    17bc:	0000                	unimp
    17be:	0000                	unimp
    17c0:	7f830003          	lb	zero,2040(t1) # ffffffffffff97f8 <__global_pointer$+0xffffffff7fff7fb0>
    17c4:	a09f 0004 0000      	.insn	6, 0x0004a09f
    17ca:	0000                	unimp
    17cc:	a400                	fsd	fs0,8(s0)
    17ce:	0004                	.insn	2, 0x0004
    17d0:	0000                	unimp
    17d2:	0000                	unimp
    17d4:	0300                	addi	s0,sp,384
    17d6:	8300                	.insn	2, 0x8300
    17d8:	9f7e                	add	t5,t5,t6
    17da:	04a8                	addi	a0,sp,584
    17dc:	0000                	unimp
    17de:	0000                	unimp
    17e0:	0000                	unimp
    17e2:	04b6                	slli	s1,s1,0xd
    17e4:	0000                	unimp
    17e6:	0000                	unimp
    17e8:	0000                	unimp
    17ea:	7f830003          	lb	zero,2040(t1)
    17ee:	009f 0000 0000      	.insn	6, 0x009f
	...
    17fc:	0000                	unimp
    17fe:	3600                	fld	fs0,40(a2)
    1800:	0001                	nop
    1802:	0000                	unimp
    1804:	0000                	unimp
    1806:	3800                	fld	fs0,48(s0)
    1808:	0001                	nop
    180a:	0000                	unimp
    180c:	0000                	unimp
    180e:	0200                	addi	s0,sp,256
    1810:	7200                	ld	s0,32(a2)
    1812:	3800                	fld	fs0,48(s0)
    1814:	0001                	nop
    1816:	0000                	unimp
    1818:	0000                	unimp
    181a:	7c00                	ld	s0,56(s0)
    181c:	0001                	nop
    181e:	0000                	unimp
    1820:	0000                	unimp
    1822:	0200                	addi	s0,sp,256
    1824:	7200                	ld	s0,32(a2)
    1826:	7c30                	ld	a2,120(s0)
    1828:	0001                	nop
    182a:	0000                	unimp
    182c:	0000                	unimp
    182e:	7e00                	ld	s0,56(a2)
    1830:	0001                	nop
    1832:	0000                	unimp
    1834:	0000                	unimp
    1836:	0200                	addi	s0,sp,256
    1838:	7200                	ld	s0,32(a2)
	...
    184a:	3600                	fld	fs0,40(a2)
    184c:	0001                	nop
    184e:	0000                	unimp
    1850:	0000                	unimp
    1852:	5600                	lw	s0,40(a2)
    1854:	0001                	nop
    1856:	0000                	unimp
    1858:	0000                	unimp
    185a:	0100                	addi	s0,sp,128
    185c:	5a00                	lw	s0,48(a2)
    185e:	0156                	slli	sp,sp,0x15
    1860:	0000                	unimp
    1862:	0000                	unimp
    1864:	0000                	unimp
    1866:	0174                	addi	a3,sp,140
    1868:	0000                	unimp
    186a:	0000                	unimp
    186c:	0000                	unimp
    186e:	0001                	nop
    1870:	005a                	c.slli	zero,0x16
	...
    187e:	0000                	unimp
    1880:	3a00                	fld	fs0,48(a2)
    1882:	0001                	nop
    1884:	0000                	unimp
    1886:	0000                	unimp
    1888:	4e00                	lw	s0,24(a2)
    188a:	0001                	nop
    188c:	0000                	unimp
    188e:	0000                	unimp
    1890:	0200                	addi	s0,sp,256
    1892:	3000                	fld	fs0,32(s0)
    1894:	4e9f 0001 0000      	.insn	6, 0x00014e9f
    189a:	0000                	unimp
    189c:	5600                	lw	s0,40(a2)
    189e:	0001                	nop
    18a0:	0000                	unimp
    18a2:	0000                	unimp
    18a4:	0600                	addi	s0,sp,768
    18a6:	9100                	.insn	2, 0x9100
    18a8:	1c007d67          	.insn	4, 0x1c007d67
    18ac:	569f 0001 0000      	.insn	6, 0x0001569f
    18b2:	0000                	unimp
    18b4:	6000                	ld	s0,0(s0)
    18b6:	0001                	nop
    18b8:	0000                	unimp
    18ba:	0000                	unimp
    18bc:	0800                	addi	s0,sp,16
    18be:	9100                	.insn	2, 0x9100
    18c0:	1c007d67          	.insn	4, 0x1c007d67
    18c4:	609f0123          	sb	s1,1538(t5)
    18c8:	0001                	nop
    18ca:	0000                	unimp
    18cc:	0000                	unimp
    18ce:	6e00                	ld	s0,24(a2)
    18d0:	0001                	nop
    18d2:	0000                	unimp
    18d4:	0000                	unimp
    18d6:	0600                	addi	s0,sp,768
    18d8:	9100                	.insn	2, 0x9100
    18da:	1c007d67          	.insn	4, 0x1c007d67
    18de:	6e9f 0001 0000      	.insn	6, 0x00016e9f
    18e4:	0000                	unimp
    18e6:	7700                	ld	s0,40(a4)
    18e8:	0001                	nop
    18ea:	0000                	unimp
    18ec:	0000                	unimp
    18ee:	0800                	addi	s0,sp,16
    18f0:	9100                	.insn	2, 0x9100
    18f2:	1c007d67          	.insn	4, 0x1c007d67
    18f6:	009f0123          	sb	s1,2(t5)
	...
    1906:	0000                	unimp
    1908:	7200                	ld	s0,32(a2)
    190a:	0001                	nop
    190c:	0000                	unimp
    190e:	0000                	unimp
    1910:	7700                	ld	s0,40(a4)
    1912:	0001                	nop
    1914:	0000                	unimp
    1916:	0000                	unimp
    1918:	0100                	addi	s0,sp,128
    191a:	6100                	ld	s0,0(a0)
    191c:	00000177          	.insn	4, 0x0177
    1920:	0000                	unimp
    1922:	0000                	unimp
    1924:	0178                	addi	a4,sp,140
    1926:	0000                	unimp
    1928:	0000                	unimp
    192a:	0000                	unimp
    192c:	58910003          	lb	zero,1417(sp)
    1930:	009f 0000 0000      	.insn	6, 0x009f
	...
    193e:	0000                	unimp
    1940:	3400                	fld	fs0,40(s0)
    1942:	0000                	unimp
    1944:	0000                	unimp
    1946:	0000                	unimp
    1948:	3600                	fld	fs0,40(a2)
    194a:	0000                	unimp
    194c:	0000                	unimp
    194e:	0000                	unimp
    1950:	0200                	addi	s0,sp,256
    1952:	7200                	ld	s0,32(a2)
    1954:	3600                	fld	fs0,40(a2)
    1956:	0000                	unimp
    1958:	0000                	unimp
    195a:	0000                	unimp
    195c:	4600                	lw	s0,8(a2)
    195e:	0000                	unimp
    1960:	0000                	unimp
    1962:	0000                	unimp
    1964:	0200                	addi	s0,sp,256
    1966:	7200                	ld	s0,32(a2)
    1968:	4610                	lw	a2,8(a2)
    196a:	0000                	unimp
    196c:	0000                	unimp
    196e:	0000                	unimp
    1970:	4800                	lw	s0,16(s0)
    1972:	0000                	unimp
    1974:	0000                	unimp
    1976:	0000                	unimp
    1978:	0200                	addi	s0,sp,256
    197a:	7200                	ld	s0,32(a2)
	...
    198c:	3400                	fld	fs0,40(s0)
    198e:	0000                	unimp
    1990:	0000                	unimp
    1992:	0000                	unimp
    1994:	3c00                	fld	fs0,56(s0)
    1996:	0000                	unimp
    1998:	0000                	unimp
    199a:	0000                	unimp
    199c:	0100                	addi	s0,sp,128
    199e:	5a00                	lw	s0,48(a2)
    19a0:	003c                	addi	a5,sp,8
    19a2:	0000                	unimp
    19a4:	0000                	unimp
    19a6:	0000                	unimp
    19a8:	0048                	addi	a0,sp,4
    19aa:	0000                	unimp
    19ac:	0000                	unimp
    19ae:	0000                	unimp
    19b0:	0004                	.insn	2, 0x0004
    19b2:	9f5a01f3          	.insn	4, 0x9f5a01f3
	...
    19c6:	0574                	addi	a3,sp,652
    19c8:	0000                	unimp
    19ca:	0000                	unimp
    19cc:	0000                	unimp
    19ce:	0576                	slli	a0,a0,0x1d
    19d0:	0000                	unimp
    19d2:	0000                	unimp
    19d4:	0000                	unimp
    19d6:	0002                	c.slli64	zero
    19d8:	0072                	c.slli	zero,0x1c
    19da:	0576                	slli	a0,a0,0x1d
    19dc:	0000                	unimp
    19de:	0000                	unimp
    19e0:	0000                	unimp
    19e2:	0630                	addi	a2,sp,776
    19e4:	0000                	unimp
    19e6:	0000                	unimp
    19e8:	0000                	unimp
    19ea:	b0720003          	lb	zero,-1273(tp) # fffffffffffffb07 <__global_pointer$+0xffffffff7fffe2bf>
    19ee:	0001                	nop
	...
    19fc:	0000                	unimp
    19fe:	7400                	ld	s0,40(s0)
    1a00:	0005                	c.nop	1
    1a02:	0000                	unimp
    1a04:	0000                	unimp
    1a06:	a200                	fsd	fs0,0(a2)
    1a08:	0005                	c.nop	1
    1a0a:	0000                	unimp
    1a0c:	0000                	unimp
    1a0e:	0100                	addi	s0,sp,128
    1a10:	5a00                	lw	s0,48(a2)
    1a12:	05a2                	slli	a1,a1,0x8
    1a14:	0000                	unimp
    1a16:	0000                	unimp
    1a18:	0000                	unimp
    1a1a:	05d4                	addi	a3,sp,708
    1a1c:	0000                	unimp
    1a1e:	0000                	unimp
    1a20:	0000                	unimp
    1a22:	0001                	nop
    1a24:	d459                	beqz	s0,19b2 <_start-0x7fffe64e>
    1a26:	0005                	c.nop	1
    1a28:	0000                	unimp
    1a2a:	0000                	unimp
    1a2c:	3000                	fld	fs0,32(s0)
    1a2e:	0006                	c.slli	zero,0x1
    1a30:	0000                	unimp
    1a32:	0000                	unimp
    1a34:	0400                	addi	s0,sp,512
    1a36:	f300                	sd	s0,32(a4)
    1a38:	5a01                	li	s4,-32
    1a3a:	009f 0000 0000      	.insn	6, 0x009f
	...
    1a48:	0000                	unimp
    1a4a:	7400                	ld	s0,40(s0)
    1a4c:	0005                	c.nop	1
    1a4e:	0000                	unimp
    1a50:	0000                	unimp
    1a52:	9800                	.insn	2, 0x9800
    1a54:	0005                	c.nop	1
    1a56:	0000                	unimp
    1a58:	0000                	unimp
    1a5a:	0100                	addi	s0,sp,128
    1a5c:	5b00                	lw	s0,48(a4)
    1a5e:	0598                	addi	a4,sp,704
    1a60:	0000                	unimp
    1a62:	0000                	unimp
    1a64:	0000                	unimp
    1a66:	05e6                	slli	a1,a1,0x19
    1a68:	0000                	unimp
    1a6a:	0000                	unimp
    1a6c:	0000                	unimp
    1a6e:	0001                	nop
    1a70:	e662                	sd	s8,264(sp)
    1a72:	0005                	c.nop	1
    1a74:	0000                	unimp
    1a76:	0000                	unimp
    1a78:	0a00                	addi	s0,sp,272
    1a7a:	0006                	c.slli	zero,0x1
    1a7c:	0000                	unimp
    1a7e:	0000                	unimp
    1a80:	0400                	addi	s0,sp,512
    1a82:	f300                	sd	s0,32(a4)
    1a84:	5b01                	li	s6,-32
    1a86:	0a9f 0006 0000      	.insn	6, 0x00060a9f
    1a8c:	0000                	unimp
    1a8e:	2800                	fld	fs0,16(s0)
    1a90:	0006                	c.slli	zero,0x1
    1a92:	0000                	unimp
    1a94:	0000                	unimp
    1a96:	0100                	addi	s0,sp,128
    1a98:	6200                	ld	s0,0(a2)
    1a9a:	0628                	addi	a0,sp,776
    1a9c:	0000                	unimp
    1a9e:	0000                	unimp
    1aa0:	0000                	unimp
    1aa2:	0630                	addi	a2,sp,776
    1aa4:	0000                	unimp
    1aa6:	0000                	unimp
    1aa8:	0000                	unimp
    1aaa:	0004                	.insn	2, 0x0004
    1aac:	9f5b01f3          	.insn	4, 0x9f5b01f3
	...
    1ac0:	05d4                	addi	a3,sp,708
    1ac2:	0000                	unimp
    1ac4:	0000                	unimp
    1ac6:	0000                	unimp
    1ac8:	05e6                	slli	a1,a1,0x19
    1aca:	0000                	unimp
    1acc:	0000                	unimp
    1ace:	0000                	unimp
    1ad0:	0001                	nop
    1ad2:	e658                	sd	a4,136(a2)
    1ad4:	0005                	c.nop	1
    1ad6:	0000                	unimp
    1ad8:	0000                	unimp
    1ada:	0400                	addi	s0,sp,512
    1adc:	0006                	c.slli	zero,0x1
    1ade:	0000                	unimp
    1ae0:	0000                	unimp
    1ae2:	0100                	addi	s0,sp,128
    1ae4:	6200                	ld	s0,0(a2)
    1ae6:	060a                	slli	a2,a2,0x2
    1ae8:	0000                	unimp
    1aea:	0000                	unimp
    1aec:	0000                	unimp
    1aee:	0628                	addi	a0,sp,776
    1af0:	0000                	unimp
    1af2:	0000                	unimp
    1af4:	0000                	unimp
    1af6:	0001                	nop
    1af8:	2858                	fld	fa4,144(s0)
    1afa:	0006                	c.slli	zero,0x1
    1afc:	0000                	unimp
    1afe:	0000                	unimp
    1b00:	3000                	fld	fs0,32(s0)
    1b02:	0006                	c.slli	zero,0x1
    1b04:	0000                	unimp
    1b06:	0000                	unimp
    1b08:	0100                	addi	s0,sp,128
    1b0a:	6200                	ld	s0,0(a2)
	...
    1b1c:	05d4                	addi	a3,sp,708
    1b1e:	0000                	unimp
    1b20:	0000                	unimp
    1b22:	0000                	unimp
    1b24:	05de                	slli	a1,a1,0x17
    1b26:	0000                	unimp
    1b28:	0000                	unimp
    1b2a:	0000                	unimp
    1b2c:	0002                	c.slli64	zero
    1b2e:	9f30                	.insn	2, 0x9f30
    1b30:	05de                	slli	a1,a1,0x17
    1b32:	0000                	unimp
    1b34:	0000                	unimp
    1b36:	0000                	unimp
    1b38:	05fa                	slli	a1,a1,0x1e
    1b3a:	0000                	unimp
    1b3c:	0000                	unimp
    1b3e:	0000                	unimp
    1b40:	0002                	c.slli64	zero
    1b42:	9f31                	addw	a4,a4,a2
    1b44:	05fa                	slli	a1,a1,0x1e
    1b46:	0000                	unimp
    1b48:	0000                	unimp
    1b4a:	0000                	unimp
    1b4c:	0604                	addi	s1,sp,768
    1b4e:	0000                	unimp
    1b50:	0000                	unimp
    1b52:	0000                	unimp
    1b54:	0002                	c.slli64	zero
    1b56:	9f32                	add	t5,t5,a2
    1b58:	060a                	slli	a2,a2,0x2
    1b5a:	0000                	unimp
    1b5c:	0000                	unimp
    1b5e:	0000                	unimp
    1b60:	0628                	addi	a0,sp,776
    1b62:	0000                	unimp
    1b64:	0000                	unimp
    1b66:	0000                	unimp
    1b68:	0002                	c.slli64	zero
    1b6a:	9f30                	.insn	2, 0x9f30
    1b6c:	0628                	addi	a0,sp,776
    1b6e:	0000                	unimp
    1b70:	0000                	unimp
    1b72:	0000                	unimp
    1b74:	0630                	addi	a2,sp,776
    1b76:	0000                	unimp
    1b78:	0000                	unimp
    1b7a:	0000                	unimp
    1b7c:	0002                	c.slli64	zero
    1b7e:	9f31                	addw	a4,a4,a2
	...
    1b90:	059c                	addi	a5,sp,704
    1b92:	0000                	unimp
    1b94:	0000                	unimp
    1b96:	0000                	unimp
    1b98:	05b8                	addi	a4,sp,712
    1b9a:	0000                	unimp
    1b9c:	0000                	unimp
    1b9e:	0000                	unimp
    1ba0:	0001                	nop
    1ba2:	00000063          	beqz	zero,1ba2 <_start-0x7fffe45e>
	...
    1bb2:	ae00                	fsd	fs0,24(a2)
    1bb4:	0005                	c.nop	1
    1bb6:	0000                	unimp
    1bb8:	0000                	unimp
    1bba:	b700                	fsd	fs0,40(a4)
    1bbc:	0005                	c.nop	1
    1bbe:	0000                	unimp
    1bc0:	0000                	unimp
    1bc2:	0100                	addi	s0,sp,128
    1bc4:	5c00                	lw	s0,56(s0)
	...
    1bd6:	05fe                	slli	a1,a1,0x1f
    1bd8:	0000                	unimp
    1bda:	0000                	unimp
    1bdc:	0000                	unimp
    1bde:	0604                	addi	s1,sp,768
    1be0:	0000                	unimp
    1be2:	0000                	unimp
    1be4:	0000                	unimp
    1be6:	0001                	nop
    1be8:	0058                	addi	a4,sp,4
	...
    1bf6:	0000                	unimp
    1bf8:	0400                	addi	s0,sp,512
    1bfa:	0006                	c.slli	zero,0x1
    1bfc:	0000                	unimp
    1bfe:	0000                	unimp
    1c00:	0a00                	addi	s0,sp,272
    1c02:	0006                	c.slli	zero,0x1
    1c04:	0000                	unimp
    1c06:	0000                	unimp
    1c08:	0100                	addi	s0,sp,128
    1c0a:	5900                	lw	s0,48(a0)
	...
    1c1c:	011e                	slli	sp,sp,0x7
    1c1e:	0000                	unimp
    1c20:	0000                	unimp
    1c22:	0000                	unimp
    1c24:	0120                	addi	s0,sp,136
    1c26:	0000                	unimp
    1c28:	0000                	unimp
    1c2a:	0000                	unimp
    1c2c:	0002                	c.slli64	zero
    1c2e:	0072                	c.slli	zero,0x1c
    1c30:	0120                	addi	s0,sp,136
    1c32:	0000                	unimp
    1c34:	0000                	unimp
    1c36:	0000                	unimp
    1c38:	0134                	addi	a3,sp,136
    1c3a:	0000                	unimp
    1c3c:	0000                	unimp
    1c3e:	0000                	unimp
    1c40:	0002                	c.slli64	zero
    1c42:	1072                	c.slli	zero,0x3c
    1c44:	0134                	addi	a3,sp,136
    1c46:	0000                	unimp
    1c48:	0000                	unimp
    1c4a:	0000                	unimp
    1c4c:	0136                	slli	sp,sp,0xd
    1c4e:	0000                	unimp
    1c50:	0000                	unimp
    1c52:	0000                	unimp
    1c54:	0002                	c.slli64	zero
    1c56:	0072                	c.slli	zero,0x1c
	...
    1c68:	011e                	slli	sp,sp,0x7
    1c6a:	0000                	unimp
    1c6c:	0000                	unimp
    1c6e:	0000                	unimp
    1c70:	012a                	slli	sp,sp,0xa
    1c72:	0000                	unimp
    1c74:	0000                	unimp
    1c76:	0000                	unimp
    1c78:	0001                	nop
    1c7a:	2a5a                	fld	fs4,400(sp)
    1c7c:	0001                	nop
    1c7e:	0000                	unimp
    1c80:	0000                	unimp
    1c82:	3600                	fld	fs0,40(a2)
    1c84:	0001                	nop
    1c86:	0000                	unimp
    1c88:	0000                	unimp
    1c8a:	0400                	addi	s0,sp,512
    1c8c:	f300                	sd	s0,32(a4)
    1c8e:	5a01                	li	s4,-32
    1c90:	009f 0000 0000      	.insn	6, 0x009f
	...
    1c9e:	0000                	unimp
    1ca0:	1e00                	addi	s0,sp,816
    1ca2:	0001                	nop
    1ca4:	0000                	unimp
    1ca6:	0000                	unimp
    1ca8:	2d00                	fld	fs0,24(a0)
    1caa:	0001                	nop
    1cac:	0000                	unimp
    1cae:	0000                	unimp
    1cb0:	0100                	addi	s0,sp,128
    1cb2:	5b00                	lw	s0,48(a4)
    1cb4:	012d                	addi	sp,sp,11
    1cb6:	0000                	unimp
    1cb8:	0000                	unimp
    1cba:	0000                	unimp
    1cbc:	0136                	slli	sp,sp,0xd
    1cbe:	0000                	unimp
    1cc0:	0000                	unimp
    1cc2:	0000                	unimp
    1cc4:	0004                	.insn	2, 0x0004
    1cc6:	9f5b01f3          	.insn	4, 0x9f5b01f3
	...
    1cda:	0122                	slli	sp,sp,0x8
    1cdc:	0000                	unimp
    1cde:	0000                	unimp
    1ce0:	0000                	unimp
    1ce2:	012e                	slli	sp,sp,0xb
    1ce4:	0000                	unimp
    1ce6:	0000                	unimp
    1ce8:	0000                	unimp
    1cea:	000a                	c.slli	zero,0x2
    1cec:	0008e003          	lwu	zero,0(a7)
    1cf0:	0080                	addi	s0,sp,64
    1cf2:	0000                	unimp
    1cf4:	9f00                	.insn	2, 0x9f00
	...
    1d06:	0108                	addi	a0,sp,128
    1d08:	0000                	unimp
    1d0a:	0000                	unimp
    1d0c:	0000                	unimp
    1d0e:	010a                	slli	sp,sp,0x2
    1d10:	0000                	unimp
    1d12:	0000                	unimp
    1d14:	0000                	unimp
    1d16:	0002                	c.slli64	zero
    1d18:	0072                	c.slli	zero,0x1c
    1d1a:	010a                	slli	sp,sp,0x2
    1d1c:	0000                	unimp
    1d1e:	0000                	unimp
    1d20:	0000                	unimp
    1d22:	0116                	slli	sp,sp,0x5
    1d24:	0000                	unimp
    1d26:	0000                	unimp
    1d28:	0000                	unimp
    1d2a:	0002                	c.slli64	zero
    1d2c:	1072                	c.slli	zero,0x3c
    1d2e:	0116                	slli	sp,sp,0x5
    1d30:	0000                	unimp
    1d32:	0000                	unimp
    1d34:	0000                	unimp
    1d36:	0118                	addi	a4,sp,128
    1d38:	0000                	unimp
    1d3a:	0000                	unimp
    1d3c:	0000                	unimp
    1d3e:	0002                	c.slli64	zero
    1d40:	0072                	c.slli	zero,0x1c
	...
    1d52:	0108                	addi	a0,sp,128
    1d54:	0000                	unimp
    1d56:	0000                	unimp
    1d58:	0000                	unimp
    1d5a:	0000010f          	.insn	4, 0x010f
    1d5e:	0000                	unimp
    1d60:	0000                	unimp
    1d62:	0001                	nop
    1d64:	0f5a                	slli	t5,t5,0x16
    1d66:	0001                	nop
    1d68:	0000                	unimp
    1d6a:	0000                	unimp
    1d6c:	1800                	addi	s0,sp,48
    1d6e:	0001                	nop
    1d70:	0000                	unimp
    1d72:	0000                	unimp
    1d74:	0400                	addi	s0,sp,512
    1d76:	f300                	sd	s0,32(a4)
    1d78:	5a01                	li	s4,-32
    1d7a:	009f 0000 0000      	.insn	6, 0x009f
	...
    1d88:	0000                	unimp
    1d8a:	0c00                	addi	s0,sp,528
    1d8c:	0001                	nop
    1d8e:	0000                	unimp
    1d90:	0000                	unimp
    1d92:	0f00                	addi	s0,sp,912
    1d94:	0001                	nop
    1d96:	0000                	unimp
    1d98:	0000                	unimp
    1d9a:	0100                	addi	s0,sp,128
    1d9c:	5a00                	lw	s0,48(a2)
    1d9e:	0000010f          	.insn	4, 0x010f
    1da2:	0000                	unimp
    1da4:	0000                	unimp
    1da6:	0110                	addi	a2,sp,128
    1da8:	0000                	unimp
    1daa:	0000                	unimp
    1dac:	0000                	unimp
    1dae:	0004                	.insn	2, 0x0004
    1db0:	9f5a01f3          	.insn	4, 0x9f5a01f3
	...
    1dc4:	00ee                	slli	ra,ra,0x1b
    1dc6:	0000                	unimp
    1dc8:	0000                	unimp
    1dca:	0000                	unimp
    1dcc:	00f0                	addi	a2,sp,76
    1dce:	0000                	unimp
    1dd0:	0000                	unimp
    1dd2:	0000                	unimp
    1dd4:	0002                	c.slli64	zero
    1dd6:	0072                	c.slli	zero,0x1c
    1dd8:	00f0                	addi	a2,sp,76
    1dda:	0000                	unimp
    1ddc:	0000                	unimp
    1dde:	0000                	unimp
    1de0:	00fa                	slli	ra,ra,0x1e
    1de2:	0000                	unimp
    1de4:	0000                	unimp
    1de6:	0000                	unimp
    1de8:	0002                	c.slli64	zero
    1dea:	1072                	c.slli	zero,0x3c
	...
    1dfc:	00da                	slli	ra,ra,0x16
    1dfe:	0000                	unimp
    1e00:	0000                	unimp
    1e02:	0000                	unimp
    1e04:	00dc                	addi	a5,sp,68
    1e06:	0000                	unimp
    1e08:	0000                	unimp
    1e0a:	0000                	unimp
    1e0c:	0002                	c.slli64	zero
    1e0e:	0072                	c.slli	zero,0x1c
    1e10:	00dc                	addi	a5,sp,68
    1e12:	0000                	unimp
    1e14:	0000                	unimp
    1e16:	0000                	unimp
    1e18:	00e6                	slli	ra,ra,0x19
    1e1a:	0000                	unimp
    1e1c:	0000                	unimp
    1e1e:	0000                	unimp
    1e20:	0002                	c.slli64	zero
    1e22:	1072                	c.slli	zero,0x3c
	...
    1e34:	00da                	slli	ra,ra,0x16
    1e36:	0000                	unimp
    1e38:	0000                	unimp
    1e3a:	0000                	unimp
    1e3c:	00e2                	slli	ra,ra,0x18
    1e3e:	0000                	unimp
    1e40:	0000                	unimp
    1e42:	0000                	unimp
    1e44:	0001                	nop
    1e46:	e25a                	sd	s6,256(sp)
    1e48:	0000                	unimp
    1e4a:	0000                	unimp
    1e4c:	0000                	unimp
    1e4e:	e600                	sd	s0,8(a2)
    1e50:	0000                	unimp
    1e52:	0000                	unimp
    1e54:	0000                	unimp
    1e56:	0400                	addi	s0,sp,512
    1e58:	f300                	sd	s0,32(a4)
    1e5a:	5a01                	li	s4,-32
    1e5c:	009f 0000 0000      	.insn	6, 0x009f
	...
    1e6a:	0000                	unimp
    1e6c:	da00                	sw	s0,48(a2)
    1e6e:	0000                	unimp
    1e70:	0000                	unimp
    1e72:	0000                	unimp
    1e74:	e500                	sd	s0,8(a0)
    1e76:	0000                	unimp
    1e78:	0000                	unimp
    1e7a:	0000                	unimp
    1e7c:	0100                	addi	s0,sp,128
    1e7e:	5b00                	lw	s0,48(a4)
    1e80:	00e5                	addi	ra,ra,25
    1e82:	0000                	unimp
    1e84:	0000                	unimp
    1e86:	0000                	unimp
    1e88:	00e6                	slli	ra,ra,0x19
    1e8a:	0000                	unimp
    1e8c:	0000                	unimp
    1e8e:	0000                	unimp
    1e90:	0004                	.insn	2, 0x0004
    1e92:	9f5b01f3          	.insn	4, 0x9f5b01f3
	...
    1ea6:	00da                	slli	ra,ra,0x16
    1ea8:	0000                	unimp
    1eaa:	0000                	unimp
    1eac:	0000                	unimp
    1eae:	00e5                	addi	ra,ra,25
    1eb0:	0000                	unimp
    1eb2:	0000                	unimp
    1eb4:	0000                	unimp
    1eb6:	0001                	nop
    1eb8:	e55c                	sd	a5,136(a0)
    1eba:	0000                	unimp
    1ebc:	0000                	unimp
    1ebe:	0000                	unimp
    1ec0:	e600                	sd	s0,8(a2)
    1ec2:	0000                	unimp
    1ec4:	0000                	unimp
    1ec6:	0000                	unimp
    1ec8:	0400                	addi	s0,sp,512
    1eca:	f300                	sd	s0,32(a4)
    1ecc:	5c01                	li	s8,-32
    1ece:	009f 0000 0000      	.insn	6, 0x009f
	...
    1edc:	0000                	unimp
    1ede:	8200                	.insn	2, 0x8200
    1ee0:	0000                	unimp
    1ee2:	0000                	unimp
    1ee4:	0000                	unimp
    1ee6:	9e00                	.insn	2, 0x9e00
    1ee8:	0000                	unimp
    1eea:	0000                	unimp
    1eec:	0000                	unimp
    1eee:	0200                	addi	s0,sp,256
    1ef0:	3000                	fld	fs0,32(s0)
    1ef2:	9e9f 0000 0000      	.insn	6, 0x9e9f
    1ef8:	0000                	unimp
    1efa:	c200                	sw	s0,0(a2)
    1efc:	0000                	unimp
    1efe:	0000                	unimp
    1f00:	0000                	unimp
    1f02:	0200                	addi	s0,sp,256
    1f04:	3100                	fld	fs0,32(a0)
    1f06:	c29f 0000 0000      	.insn	6, 0xc29f
    1f0c:	0000                	unimp
    1f0e:	c800                	sw	s0,16(s0)
    1f10:	0000                	unimp
    1f12:	0000                	unimp
    1f14:	0000                	unimp
    1f16:	0200                	addi	s0,sp,256
    1f18:	3200                	fld	fs0,32(a2)
    1f1a:	009f 0000 0000      	.insn	6, 0x009f
	...
    1f28:	0000                	unimp
    1f2a:	8600                	.insn	2, 0x8600
    1f2c:	0000                	unimp
    1f2e:	0000                	unimp
    1f30:	0000                	unimp
    1f32:	aa00                	fsd	fs0,16(a2)
    1f34:	0000                	unimp
    1f36:	0000                	unimp
    1f38:	0000                	unimp
    1f3a:	0100                	addi	s0,sp,128
    1f3c:	5f00                	lw	s0,56(a4)
    1f3e:	00aa                	slli	ra,ra,0xa
    1f40:	0000                	unimp
    1f42:	0000                	unimp
    1f44:	0000                	unimp
    1f46:	00c8                	addi	a0,sp,68
    1f48:	0000                	unimp
    1f4a:	0000                	unimp
    1f4c:	0000                	unimp
    1f4e:	0009                	c.nop	2
    1f50:	00104803          	lbu	a6,1(zero) # 1 <_start-0x7fffffff>
    1f54:	0080                	addi	s0,sp,64
	...
    1f66:	0000                	unimp
    1f68:	8600                	.insn	2, 0x8600
    1f6a:	0000                	unimp
    1f6c:	0000                	unimp
    1f6e:	0000                	unimp
    1f70:	9400                	.insn	2, 0x9400
    1f72:	0000                	unimp
    1f74:	0000                	unimp
    1f76:	0000                	unimp
    1f78:	0100                	addi	s0,sp,128
    1f7a:	5f00                	lw	s0,56(a4)
	...
    1f8c:	00aa                	slli	ra,ra,0xa
    1f8e:	0000                	unimp
    1f90:	0000                	unimp
    1f92:	0000                	unimp
    1f94:	00b8                	addi	a4,sp,72
    1f96:	0000                	unimp
    1f98:	0000                	unimp
    1f9a:	0000                	unimp
    1f9c:	0001                	nop
    1f9e:	005f 0000 0000      	.insn	6, 0x005f
	...
    1fac:	0000                	unimp
    1fae:	6000                	ld	s0,0(s0)
    1fb0:	0000                	unimp
    1fb2:	0000                	unimp
    1fb4:	0000                	unimp
    1fb6:	6200                	ld	s0,0(a2)
    1fb8:	0000                	unimp
    1fba:	0000                	unimp
    1fbc:	0000                	unimp
    1fbe:	0200                	addi	s0,sp,256
    1fc0:	7200                	ld	s0,32(a2)
    1fc2:	6200                	ld	s0,0(a2)
    1fc4:	0000                	unimp
    1fc6:	0000                	unimp
    1fc8:	0000                	unimp
    1fca:	8000                	.insn	2, 0x8000
    1fcc:	0000                	unimp
    1fce:	0000                	unimp
    1fd0:	0000                	unimp
    1fd2:	0200                	addi	s0,sp,256
    1fd4:	7200                	ld	s0,32(a2)
    1fd6:	8010                	.insn	2, 0x8010
    1fd8:	0000                	unimp
    1fda:	0000                	unimp
    1fdc:	0000                	unimp
    1fde:	8200                	.insn	2, 0x8200
    1fe0:	0000                	unimp
    1fe2:	0000                	unimp
    1fe4:	0000                	unimp
    1fe6:	0200                	addi	s0,sp,256
    1fe8:	7200                	ld	s0,32(a2)
	...
    1ffa:	6000                	ld	s0,0(s0)
    1ffc:	0000                	unimp
    1ffe:	0000                	unimp
    2000:	0000                	unimp
    2002:	6c00                	ld	s0,24(s0)
    2004:	0000                	unimp
    2006:	0000                	unimp
    2008:	0000                	unimp
    200a:	0100                	addi	s0,sp,128
    200c:	5a00                	lw	s0,48(a2)
    200e:	006c                	addi	a1,sp,12
    2010:	0000                	unimp
    2012:	0000                	unimp
    2014:	0000                	unimp
    2016:	007e                	c.slli	zero,0x1f
    2018:	0000                	unimp
    201a:	0000                	unimp
    201c:	0000                	unimp
    201e:	0001                	nop
    2020:	0058                	addi	a4,sp,4
	...
    202e:	0000                	unimp
    2030:	e600                	sd	s0,8(a2)
    2032:	0000                	unimp
    2034:	0000                	unimp
    2036:	0000                	unimp
    2038:	e800                	sd	s0,16(s0)
    203a:	0000                	unimp
    203c:	0000                	unimp
    203e:	0000                	unimp
    2040:	0200                	addi	s0,sp,256
    2042:	7200                	ld	s0,32(a2)
    2044:	e800                	sd	s0,16(s0)
    2046:	0000                	unimp
    2048:	0000                	unimp
    204a:	0000                	unimp
    204c:	ee00                	sd	s0,24(a2)
    204e:	0000                	unimp
    2050:	0000                	unimp
    2052:	0000                	unimp
    2054:	0200                	addi	s0,sp,256
    2056:	7200                	ld	s0,32(a2)
    2058:	0010                	.insn	2, 0x0010
	...
    2066:	0000                	unimp
    2068:	e600                	sd	s0,8(a2)
    206a:	0000                	unimp
    206c:	0000                	unimp
    206e:	0000                	unimp
    2070:	ed00                	sd	s0,24(a0)
    2072:	0000                	unimp
    2074:	0000                	unimp
    2076:	0000                	unimp
    2078:	0100                	addi	s0,sp,128
    207a:	5a00                	lw	s0,48(a2)
    207c:	00ed                	addi	ra,ra,27
    207e:	0000                	unimp
    2080:	0000                	unimp
    2082:	0000                	unimp
    2084:	00ee                	slli	ra,ra,0x1b
    2086:	0000                	unimp
    2088:	0000                	unimp
    208a:	0000                	unimp
    208c:	0004                	.insn	2, 0x0004
    208e:	9f5a01f3          	.insn	4, 0x9f5a01f3
	...
    20a2:	00fa                	slli	ra,ra,0x1e
    20a4:	0000                	unimp
    20a6:	0000                	unimp
    20a8:	0000                	unimp
    20aa:	00fc                	addi	a5,sp,76
    20ac:	0000                	unimp
    20ae:	0000                	unimp
    20b0:	0000                	unimp
    20b2:	0002                	c.slli64	zero
    20b4:	0072                	c.slli	zero,0x1c
    20b6:	00fc                	addi	a5,sp,76
    20b8:	0000                	unimp
    20ba:	0000                	unimp
    20bc:	0000                	unimp
    20be:	0106                	slli	sp,sp,0x1
    20c0:	0000                	unimp
    20c2:	0000                	unimp
    20c4:	0000                	unimp
    20c6:	0002                	c.slli64	zero
    20c8:	1072                	c.slli	zero,0x3c
    20ca:	0106                	slli	sp,sp,0x1
    20cc:	0000                	unimp
    20ce:	0000                	unimp
    20d0:	0000                	unimp
    20d2:	0108                	addi	a0,sp,128
    20d4:	0000                	unimp
    20d6:	0000                	unimp
    20d8:	0000                	unimp
    20da:	0002                	c.slli64	zero
    20dc:	0072                	c.slli	zero,0x1c
	...
    20ee:	00fa                	slli	ra,ra,0x1e
    20f0:	0000                	unimp
    20f2:	0000                	unimp
    20f4:	0000                	unimp
    20f6:	0101                	addi	sp,sp,0
    20f8:	0000                	unimp
    20fa:	0000                	unimp
    20fc:	0000                	unimp
    20fe:	0001                	nop
    2100:	015a                	slli	sp,sp,0x16
    2102:	0001                	nop
    2104:	0000                	unimp
    2106:	0000                	unimp
    2108:	0800                	addi	s0,sp,16
    210a:	0001                	nop
    210c:	0000                	unimp
    210e:	0000                	unimp
    2110:	0400                	addi	s0,sp,512
    2112:	f300                	sd	s0,32(a4)
    2114:	5a01                	li	s4,-32
    2116:	009f 0000 0000      	.insn	6, 0x009f
	...

Disassembly of section .debug_ranges:

0000000000000000 <.debug_ranges>:
   0:	03ca                	slli	t2,t2,0x12
   2:	0000                	unimp
   4:	0000                	unimp
   6:	0000                	unimp
   8:	03e0                	addi	s0,sp,460
   a:	0000                	unimp
   c:	0000                	unimp
   e:	0000                	unimp
  10:	03ea                	slli	t2,t2,0x1a
  12:	0000                	unimp
  14:	0000                	unimp
  16:	0000                	unimp
  18:	03f2                	slli	t2,t2,0x1c
	...
  2e:	0000                	unimp
  30:	0414                	addi	a3,sp,512
  32:	0000                	unimp
  34:	0000                	unimp
  36:	0000                	unimp
  38:	0414                	addi	a3,sp,512
  3a:	0000                	unimp
  3c:	0000                	unimp
  3e:	0000                	unimp
  40:	0416                	slli	s0,s0,0x5
  42:	0000                	unimp
  44:	0000                	unimp
  46:	0000                	unimp
  48:	0420                	addi	s0,sp,520
  4a:	0000                	unimp
  4c:	0000                	unimp
  4e:	0000                	unimp
  50:	0422                	slli	s0,s0,0x8
  52:	0000                	unimp
  54:	0000                	unimp
  56:	0000                	unimp
  58:	042e                	slli	s0,s0,0xb
  5a:	0000                	unimp
  5c:	0000                	unimp
  5e:	0000                	unimp
  60:	0490                	addi	a2,sp,576
  62:	0000                	unimp
  64:	0000                	unimp
  66:	0000                	unimp
  68:	049a                	slli	s1,s1,0x6
	...
  7e:	0000                	unimp
  80:	0430                	addi	a2,sp,520
  82:	0000                	unimp
  84:	0000                	unimp
  86:	0000                	unimp
  88:	048c                	addi	a1,sp,576
  8a:	0000                	unimp
  8c:	0000                	unimp
  8e:	0000                	unimp
  90:	049a                	slli	s1,s1,0x6
  92:	0000                	unimp
  94:	0000                	unimp
  96:	0000                	unimp
  98:	04ba                	slli	s1,s1,0xe
	...
  ae:	0000                	unimp
  b0:	05d4                	addi	a3,sp,708
  b2:	0000                	unimp
  b4:	0000                	unimp
  b6:	0000                	unimp
  b8:	05e4                	addi	s1,sp,716
  ba:	0000                	unimp
  bc:	0000                	unimp
  be:	0000                	unimp
  c0:	05e6                	slli	a1,a1,0x19
  c2:	0000                	unimp
  c4:	0000                	unimp
  c6:	0000                	unimp
  c8:	05fa                	slli	a1,a1,0x1e
  ca:	0000                	unimp
  cc:	0000                	unimp
  ce:	0000                	unimp
  d0:	060a                	slli	a2,a2,0x2
  d2:	0000                	unimp
  d4:	0000                	unimp
  d6:	0000                	unimp
  d8:	0630                	addi	a2,sp,776
	...

Disassembly of section .debug_frame:

0000000000000000 <.debug_frame>:
   0:	000c                	.insn	2, 0x000c
   2:	0000                	unimp
   4:	ffff                	.insn	2, 0xffff
   6:	ffff                	.insn	2, 0xffff
   8:	7c010003          	lb	zero,1984(sp)
   c:	0c01                	addi	s8,s8,0
   e:	0002                	c.slli64	zero
  10:	0014                	.insn	2, 0x0014
  12:	0000                	unimp
  14:	0000                	unimp
  16:	0000                	unimp
  18:	0200                	addi	s0,sp,256
  1a:	8000                	.insn	2, 0x8000
  1c:	0000                	unimp
  1e:	0000                	unimp
  20:	000e                	c.slli	zero,0x3
  22:	0000                	unimp
  24:	0000                	unimp
  26:	0000                	unimp
  28:	0014                	.insn	2, 0x0014
  2a:	0000                	unimp
  2c:	0000                	unimp
  2e:	0000                	unimp
  30:	020e                	slli	tp,tp,0x3
  32:	8000                	.insn	2, 0x8000
  34:	0000                	unimp
  36:	0000                	unimp
  38:	000c                	.insn	2, 0x000c
  3a:	0000                	unimp
  3c:	0000                	unimp
  3e:	0000                	unimp
  40:	0014                	.insn	2, 0x0014
  42:	0000                	unimp
  44:	0000                	unimp
  46:	0000                	unimp
  48:	021a                	slli	tp,tp,0x6
  4a:	8000                	.insn	2, 0x8000
  4c:	0000                	unimp
  4e:	0000                	unimp
  50:	001a                	c.slli	zero,0x6
  52:	0000                	unimp
  54:	0000                	unimp
  56:	0000                	unimp
  58:	0024                	addi	s1,sp,8
  5a:	0000                	unimp
  5c:	0000                	unimp
  5e:	0000                	unimp
  60:	0234                	addi	a3,sp,264
  62:	8000                	.insn	2, 0x8000
  64:	0000                	unimp
  66:	0000                	unimp
  68:	0014                	.insn	2, 0x0014
  6a:	0000                	unimp
  6c:	0000                	unimp
  6e:	0000                	unimp
  70:	0e42                	slli	t3,t3,0x10
  72:	4210                	lw	a2,0(a2)
  74:	0281                	addi	t0,t0,0 # 10c44b8 <_start-0x7ef3bb48>
  76:	c14c                	sw	a1,4(a0)
  78:	0e42                	slli	t3,t3,0x10
  7a:	0000                	unimp
  7c:	0000                	unimp
  7e:	0000                	unimp
  80:	0014                	.insn	2, 0x0014
  82:	0000                	unimp
  84:	0000                	unimp
  86:	0000                	unimp
  88:	0248                	addi	a0,sp,260
  8a:	8000                	.insn	2, 0x8000
  8c:	0000                	unimp
  8e:	0000                	unimp
  90:	0018                	.insn	2, 0x0018
  92:	0000                	unimp
  94:	0000                	unimp
  96:	0000                	unimp
  98:	0024                	addi	s1,sp,8
  9a:	0000                	unimp
  9c:	0000                	unimp
  9e:	0000                	unimp
  a0:	0260                	addi	s0,sp,268
  a2:	8000                	.insn	2, 0x8000
  a4:	0000                	unimp
  a6:	0000                	unimp
  a8:	0022                	c.slli	zero,0x8
  aa:	0000                	unimp
  ac:	0000                	unimp
  ae:	0000                	unimp
  b0:	0e42                	slli	t3,t3,0x10
  b2:	4410                	lw	a2,8(s0)
  b4:	0281                	addi	t0,t0,0
  b6:	0488                	addi	a0,sp,576
  b8:	c156                	sw	s5,128(sp)
  ba:	c842                	sw	a6,16(sp)
  bc:	0e42                	slli	t3,t3,0x10
  be:	0000                	unimp
  c0:	0014                	.insn	2, 0x0014
  c2:	0000                	unimp
  c4:	0000                	unimp
  c6:	0000                	unimp
  c8:	0282                	c.slli64	t0
  ca:	8000                	.insn	2, 0x8000
  cc:	0000                	unimp
  ce:	0000                	unimp
  d0:	0046                	c.slli	zero,0x11
  d2:	0000                	unimp
  d4:	0000                	unimp
  d6:	0000                	unimp
  d8:	0014                	.insn	2, 0x0014
  da:	0000                	unimp
  dc:	0000                	unimp
  de:	0000                	unimp
  e0:	02c8                	addi	a0,sp,324
  e2:	8000                	.insn	2, 0x8000
  e4:	0000                	unimp
  e6:	0000                	unimp
  e8:	0012                	c.slli	zero,0x4
  ea:	0000                	unimp
  ec:	0000                	unimp
  ee:	0000                	unimp
  f0:	001c                	.insn	2, 0x001c
  f2:	0000                	unimp
  f4:	0000                	unimp
  f6:	0000                	unimp
  f8:	02da                	slli	t0,t0,0x16
  fa:	8000                	.insn	2, 0x8000
  fc:	0000                	unimp
  fe:	0000                	unimp
 100:	000c                	.insn	2, 0x000c
 102:	0000                	unimp
 104:	0000                	unimp
 106:	0000                	unimp
 108:	0e42                	slli	t3,t3,0x10
 10a:	4210                	lw	a2,0(a2)
 10c:	0281                	addi	t0,t0,0
 10e:	0000                	unimp
 110:	001c                	.insn	2, 0x001c
 112:	0000                	unimp
 114:	0000                	unimp
 116:	0000                	unimp
 118:	02e6                	slli	t0,t0,0x19
 11a:	8000                	.insn	2, 0x8000
 11c:	0000                	unimp
 11e:	0000                	unimp
 120:	0008                	.insn	2, 0x0008
 122:	0000                	unimp
 124:	0000                	unimp
 126:	0000                	unimp
 128:	0e42                	slli	t3,t3,0x10
 12a:	4210                	lw	a2,0(a2)
 12c:	0281                	addi	t0,t0,0
 12e:	0000                	unimp
 130:	001c                	.insn	2, 0x001c
 132:	0000                	unimp
 134:	0000                	unimp
 136:	0000                	unimp
 138:	02ee                	slli	t0,t0,0x1b
 13a:	8000                	.insn	2, 0x8000
 13c:	0000                	unimp
 13e:	0000                	unimp
 140:	000c                	.insn	2, 0x000c
 142:	0000                	unimp
 144:	0000                	unimp
 146:	0000                	unimp
 148:	0e42                	slli	t3,t3,0x10
 14a:	4210                	lw	a2,0(a2)
 14c:	0281                	addi	t0,t0,0
 14e:	0000                	unimp
 150:	0024                	addi	s1,sp,8
 152:	0000                	unimp
 154:	0000                	unimp
 156:	0000                	unimp
 158:	02fa                	slli	t0,t0,0x1e
 15a:	8000                	.insn	2, 0x8000
 15c:	0000                	unimp
 15e:	0000                	unimp
 160:	000e                	c.slli	zero,0x3
 162:	0000                	unimp
 164:	0000                	unimp
 166:	0000                	unimp
 168:	0e42                	slli	t3,t3,0x10
 16a:	4210                	lw	a2,0(a2)
 16c:	0281                	addi	t0,t0,0
 16e:	c146                	sw	a7,128(sp)
 170:	0e42                	slli	t3,t3,0x10
 172:	0000                	unimp
 174:	0000                	unimp
 176:	0000                	unimp
 178:	0024                	addi	s1,sp,8
 17a:	0000                	unimp
 17c:	0000                	unimp
 17e:	0000                	unimp
 180:	0308                	addi	a0,sp,384
 182:	8000                	.insn	2, 0x8000
 184:	0000                	unimp
 186:	0000                	unimp
 188:	0010                	.insn	2, 0x0010
 18a:	0000                	unimp
 18c:	0000                	unimp
 18e:	0000                	unimp
 190:	0e42                	slli	t3,t3,0x10
 192:	4210                	lw	a2,0(a2)
 194:	0281                	addi	t0,t0,0
 196:	c148                	sw	a0,4(a0)
 198:	0e42                	slli	t3,t3,0x10
 19a:	0000                	unimp
 19c:	0000                	unimp
 19e:	0000                	unimp
 1a0:	0014                	.insn	2, 0x0014
 1a2:	0000                	unimp
 1a4:	0000                	unimp
 1a6:	0000                	unimp
 1a8:	0318                	addi	a4,sp,384
 1aa:	8000                	.insn	2, 0x8000
 1ac:	0000                	unimp
 1ae:	0000                	unimp
 1b0:	0006                	c.slli	zero,0x1
 1b2:	0000                	unimp
 1b4:	0000                	unimp
 1b6:	0000                	unimp
 1b8:	0024                	addi	s1,sp,8
 1ba:	0000                	unimp
 1bc:	0000                	unimp
 1be:	0000                	unimp
 1c0:	031e                	slli	t1,t1,0x7
 1c2:	8000                	.insn	2, 0x8000
 1c4:	0000                	unimp
 1c6:	0000                	unimp
 1c8:	0018                	.insn	2, 0x0018
 1ca:	0000                	unimp
 1cc:	0000                	unimp
 1ce:	0000                	unimp
 1d0:	0e42                	slli	t3,t3,0x10
 1d2:	4210                	lw	a2,0(a2)
 1d4:	0281                	addi	t0,t0,0
 1d6:	c150                	sw	a2,4(a0)
 1d8:	0e42                	slli	t3,t3,0x10
 1da:	0000                	unimp
 1dc:	0000                	unimp
 1de:	0000                	unimp
 1e0:	0024                	addi	s1,sp,8
 1e2:	0000                	unimp
 1e4:	0000                	unimp
 1e6:	0000                	unimp
 1e8:	0336                	slli	t1,t1,0xd
 1ea:	8000                	.insn	2, 0x8000
 1ec:	0000                	unimp
 1ee:	0000                	unimp
 1f0:	0048                	addi	a0,sp,4
 1f2:	0000                	unimp
 1f4:	0000                	unimp
 1f6:	0000                	unimp
 1f8:	0e42                	slli	t3,t3,0x10
 1fa:	4230                	lw	a2,64(a2)
 1fc:	0281                	addi	t0,t0,0
 1fe:	4002                	.insn	2, 0x4002
 200:	42c1                	li	t0,16
 202:	000e                	c.slli	zero,0x3
 204:	0000                	unimp
 206:	0000                	unimp
 208:	0014                	.insn	2, 0x0014
 20a:	0000                	unimp
 20c:	0000                	unimp
 20e:	0000                	unimp
 210:	037e                	slli	t1,t1,0x1f
 212:	8000                	.insn	2, 0x8000
 214:	0000                	unimp
 216:	0000                	unimp
 218:	0044                	addi	s1,sp,4
 21a:	0000                	unimp
 21c:	0000                	unimp
 21e:	0000                	unimp
 220:	0014                	.insn	2, 0x0014
 222:	0000                	unimp
 224:	0000                	unimp
 226:	0000                	unimp
 228:	03c2                	slli	t2,t2,0x10
 22a:	8000                	.insn	2, 0x8000
 22c:	0000                	unimp
 22e:	0000                	unimp
 230:	0048                	addi	a0,sp,4
 232:	0000                	unimp
 234:	0000                	unimp
 236:	0000                	unimp
 238:	0014                	.insn	2, 0x0014
 23a:	0000                	unimp
 23c:	0000                	unimp
 23e:	0000                	unimp
 240:	040a                	slli	s0,s0,0x2
 242:	8000                	.insn	2, 0x8000
 244:	0000                	unimp
 246:	0000                	unimp
 248:	001a                	c.slli	zero,0x6
 24a:	0000                	unimp
 24c:	0000                	unimp
 24e:	0000                	unimp
 250:	0014                	.insn	2, 0x0014
 252:	0000                	unimp
 254:	0000                	unimp
 256:	0000                	unimp
 258:	0424                	addi	s1,sp,520
 25a:	8000                	.insn	2, 0x8000
 25c:	0000                	unimp
 25e:	0000                	unimp
 260:	001e                	c.slli	zero,0x7
 262:	0000                	unimp
 264:	0000                	unimp
 266:	0000                	unimp
 268:	006c                	addi	a1,sp,12
 26a:	0000                	unimp
 26c:	0000                	unimp
 26e:	0000                	unimp
 270:	0442                	slli	s0,s0,0x10
 272:	8000                	.insn	2, 0x8000
 274:	0000                	unimp
 276:	0000                	unimp
 278:	02c8                	addi	a0,sp,324
 27a:	0000                	unimp
 27c:	0000                	unimp
 27e:	0000                	unimp
 280:	0e42                	slli	t3,t3,0x10
 282:	02f0                	addi	a2,sp,332
 284:	8158                	.insn	2, 0x8158
 286:	8802                	jr	a6
 288:	8904                	.insn	2, 0x8904
 28a:	9206                	add	tp,tp,ra
 28c:	9308                	.insn	2, 0x9308
 28e:	940a                	add	s0,s0,sp
 290:	950c                	.insn	2, 0x950c
 292:	960e                	add	a2,a2,gp
 294:	9710                	.insn	2, 0x9710
 296:	9812                	add	a6,a6,tp
 298:	9a14                	.insn	2, 0x9a14
 29a:	9b18                	.insn	2, 0x9b18
 29c:	021a                	slli	tp,tp,0x6
 29e:	0a72                	slli	s4,s4,0x1c
 2a0:	1699                	addi	a3,a3,-26
 2a2:	0b42                	slli	s6,s6,0x10
 2a4:	9900fc03          	.insn	4, 0x9900fc03
 2a8:	7616                	ld	a2,352(sp)
 2aa:	48d9                	li	a7,22
 2ac:	1699                	addi	a3,a3,-26
 2ae:	d954                	sw	a3,52(a0)
 2b0:	9944                	.insn	2, 0x9944
 2b2:	0216                	slli	tp,tp,0x5
 2b4:	d968                	sw	a0,116(a0)
 2b6:	9944                	.insn	2, 0x9944
 2b8:	6a16                	ld	s4,320(sp)
 2ba:	78d9                	lui	a7,0xffff6
 2bc:	42c1                	li	t0,16
 2be:	42c8                	lw	a0,4(a3)
 2c0:	42c9                	li	t0,18
 2c2:	42d2                	lw	t0,20(sp)
 2c4:	42d442d3          	.insn	4, 0x42d442d3
 2c8:	42d5                	li	t0,21
 2ca:	42d6                	lw	t0,84(sp)
 2cc:	42d842d7          	.insn	4, 0x42d842d7
 2d0:	42da                	lw	t0,148(sp)
 2d2:	000e42db          	.insn	4, 0x000e42db
 2d6:	0000                	unimp
 2d8:	0024                	addi	s1,sp,8
 2da:	0000                	unimp
 2dc:	0000                	unimp
 2de:	0000                	unimp
 2e0:	070a                	slli	a4,a4,0x2
 2e2:	8000                	.insn	2, 0x8000
 2e4:	0000                	unimp
 2e6:	0000                	unimp
 2e8:	002e                	c.slli	zero,0xb
 2ea:	0000                	unimp
 2ec:	0000                	unimp
 2ee:	0000                	unimp
 2f0:	0e42                	slli	t3,t3,0x10
 2f2:	4260                	lw	s0,68(a2)
 2f4:	1281                	addi	t0,t0,-32
 2f6:	c166                	sw	s9,128(sp)
 2f8:	0e42                	slli	t3,t3,0x10
 2fa:	0000                	unimp
 2fc:	0000                	unimp
 2fe:	0000                	unimp
 300:	0024                	addi	s1,sp,8
 302:	0000                	unimp
 304:	0000                	unimp
 306:	0000                	unimp
 308:	0738                	addi	a4,sp,904
 30a:	8000                	.insn	2, 0x8000
 30c:	0000                	unimp
 30e:	0000                	unimp
 310:	003c                	addi	a5,sp,8
 312:	0000                	unimp
 314:	0000                	unimp
 316:	0000                	unimp
 318:	0e42                	slli	t3,t3,0x10
 31a:	4460                	lw	s0,76(s0)
 31c:	0e81                	addi	t4,t4,0
 31e:	1088                	addi	a0,sp,96
 320:	c170                	sw	a2,68(a0)
 322:	c842                	sw	a6,16(sp)
 324:	0e42                	slli	t3,t3,0x10
 326:	0000                	unimp
 328:	002c                	addi	a1,sp,8
 32a:	0000                	unimp
 32c:	0000                	unimp
 32e:	0000                	unimp
 330:	0774                	addi	a3,sp,908
 332:	8000                	.insn	2, 0x8000
 334:	0000                	unimp
 336:	0000                	unimp
 338:	00bc                	addi	a5,sp,72
 33a:	0000                	unimp
 33c:	0000                	unimp
 33e:	0000                	unimp
 340:	0e42                	slli	t3,t3,0x10
 342:	01b0                	addi	a2,sp,200
 344:	814e                	mv	sp,s3
 346:	8802                	jr	a6
 348:	8904                	.insn	2, 0x8904
 34a:	9206                	add	tp,tp,ra
 34c:	9308                	.insn	2, 0x9308
 34e:	940a                	add	s0,s0,sp
 350:	950c                	.insn	2, 0x950c
 352:	000e                	c.slli	zero,0x3
 354:	0000                	unimp
 356:	0000                	unimp
 358:	0014                	.insn	2, 0x0014
 35a:	0000                	unimp
 35c:	0000                	unimp
 35e:	0000                	unimp
 360:	0830                	addi	a2,sp,24
 362:	8000                	.insn	2, 0x8000
 364:	0000                	unimp
 366:	0000                	unimp
 368:	0018                	.insn	2, 0x0018
 36a:	0000                	unimp
 36c:	0000                	unimp
 36e:	0000                	unimp
 370:	0014                	.insn	2, 0x0014
 372:	0000                	unimp
 374:	0000                	unimp
 376:	0000                	unimp
 378:	0848                	addi	a0,sp,20
 37a:	8000                	.insn	2, 0x8000
 37c:	0000                	unimp
 37e:	0000                	unimp
 380:	0012                	c.slli	zero,0x4
 382:	0000                	unimp
 384:	0000                	unimp
 386:	0000                	unimp
 388:	0014                	.insn	2, 0x0014
 38a:	0000                	unimp
 38c:	0000                	unimp
 38e:	0000                	unimp
 390:	085a                	slli	a6,a6,0x16
 392:	8000                	.insn	2, 0x8000
 394:	0000                	unimp
 396:	0000                	unimp
 398:	0066                	c.slli	zero,0x19
 39a:	0000                	unimp
 39c:	0000                	unimp
	...
